
========================================================================

** ELF Header Information

    File Name: .\obj\Smpl_NUTINY_100.axf

    Machine class: ELFCLASS32 (32-bit)
    Data encoding: ELFDATA2LSB (Little endian)
    Header version: EV_CURRENT (Current version)
    Operating System ABI: none
    ABI Version: 0
    File Type: ET_EXEC (Executable) (2)
    Machine: EM_ARM (ARM)

    Image Entry point: 0x00000169
    Flags: EF_ARM_HASENTRY (0x05000002)

    ARM ELF revision: 5 (ABI version 2)

    Built with
    ARM C/C++ Compiler, 5.02 [Build 28]
    ARM Assembler, 5.02 [Build 28]
    ARM Linker, 5.02 [Build 28] 

    Header size: 52 bytes (0x34)
    Program header entry size: 32 bytes (0x20)
    Section header entry size: 40 bytes (0x28)

    Program header entries: 1
    Section header entries: 16

    Program header offset: 431116 (0x0006940c)
    Section header offset: 431148 (0x0006942c)

    Section header string table index: 15

========================================================================

** Program header #0 (PT_LOAD) [PF_X + PF_W + PF_R + PF_ARM_ENTRY]
    Size : 19420 bytes (17804 bytes in file)
    Virtual address: 0x00000000 (Alignment 8)


========================================================================

** Section #1 'ER_RO' (SHT_PROGBITS) [SHF_ALLOC + SHF_EXECINSTR]
    Size   : 16996 bytes (alignment 4)
    Address: 0x00000000

    $d.realdata
    RESET
    __Vectors
        0x00000000:    20000978    x..     DCD    536873336
        0x00000004:    00000169    i...    DCD    361
        0x00000008:    00000189    ....    DCD    393
        0x0000000c:    0000018b    ....    DCD    395
        0x00000010:    00000000    ....    DCD    0
        0x00000014:    00000000    ....    DCD    0
        0x00000018:    00000000    ....    DCD    0
        0x0000001c:    00000000    ....    DCD    0
        0x00000020:    00000000    ....    DCD    0
        0x00000024:    00000000    ....    DCD    0
        0x00000028:    00000000    ....    DCD    0
        0x0000002c:    0000018d    ....    DCD    397
        0x00000030:    00000000    ....    DCD    0
        0x00000034:    00000000    ....    DCD    0
        0x00000038:    0000018f    ....    DCD    399
        0x0000003c:    00000191    ....    DCD    401
        0x00000040:    00000391    ....    DCD    913
        0x00000044:    00003d69    i=..    DCD    15721
        0x00000048:    00002ead    ....    DCD    11949
        0x0000004c:    00002ed1    ....    DCD    11985
        0x00000050:    00002ef5    ....    DCD    12021
        0x00000054:    00002f31    1/..    DCD    12081
        0x00000058:    00003555    U5..    DCD    13653
        0x0000005c:    000036b9    .6..    DCD    14009
        0x00000060:    00003965    e9..    DCD    14693
        0x00000064:    000039f9    .9..    DCD    14841
        0x00000068:    00003a8d    .:..    DCD    14989
        0x0000006c:    00003b21    !;..    DCD    15137
        0x00000070:    00003cb5    .<..    DCD    15541
        0x00000074:    00003cf1    .<..    DCD    15601
        0x00000078:    00000193    ....    DCD    403
        0x0000007c:    00000193    ....    DCD    403
        0x00000080:    00000193    ....    DCD    403
        0x00000084:    00000193    ....    DCD    403
        0x00000088:    00000193    ....    DCD    403
        0x0000008c:    00000193    ....    DCD    403
        0x00000090:    00000193    ....    DCD    403
        0x00000094:    00000193    ....    DCD    403
        0x00000098:    00000193    ....    DCD    403
        0x0000009c:    00003d49    I=..    DCD    15689
        0x000000a0:    00000193    ....    DCD    403
        0x000000a4:    00000193    ....    DCD    403
        0x000000a8:    000034cd    .4..    DCD    13517
        0x000000ac:    00000193    ....    DCD    403
        0x000000b0:    0000385d    ]8..    DCD    14429
        0x000000b4:    00000193    ....    DCD    403
        0x000000b8:    00000193    ....    DCD    403
        0x000000bc:    00000193    ....    DCD    403
    $t
    !!!main
    __main
        0x000000c0:    f000f802    ....    BL       __scatterload ; 0xc8
        0x000000c4:    f000f840    ..@.    BL       __rt_entry ; 0x148
    !!!scatter
    __scatterload
    __scatterload_rt2
    __scatterload_rt2_thumb_only
        0x000000c8:    a00c        ..      ADR      r0,{pc}+0x34 ; 0xfc
        0x000000ca:    c830        0.      LDM      r0!,{r4,r5}
        0x000000cc:    3808        .8      SUBS     r0,r0,#8
        0x000000ce:    1824        $.      ADDS     r4,r4,r0
        0x000000d0:    182d        -.      ADDS     r5,r5,r0
        0x000000d2:    46a2        .F      MOV      r10,r4
        0x000000d4:    1e67        g.      SUBS     r7,r4,#1
        0x000000d6:    46ab        .F      MOV      r11,r5
    __scatterload_null
        0x000000d8:    4654        TF      MOV      r4,r10
        0x000000da:    465d        ]F      MOV      r5,r11
        0x000000dc:    42ac        .B      CMP      r4,r5
        0x000000de:    d101        ..      BNE      0xe4 ; __scatterload_null + 12
        0x000000e0:    f000f832    ..2.    BL       __rt_entry ; 0x148
        0x000000e4:    467e        ~F      MOV      r6,pc
        0x000000e6:    3e0f        .>      SUBS     r6,r6,#0xf
        0x000000e8:    cc0f        ..      LDM      r4!,{r0-r3}
        0x000000ea:    46b6        .F      MOV      lr,r6
        0x000000ec:    2601        .&      MOVS     r6,#1
        0x000000ee:    4233        3B      TST      r3,r6
        0x000000f0:    d000        ..      BEQ      0xf4 ; __scatterload_null + 28
        0x000000f2:    1afb        ..      SUBS     r3,r7,r3
        0x000000f4:    46a2        .F      MOV      r10,r4
        0x000000f6:    46ab        .F      MOV      r11,r5
        0x000000f8:    4333        3C      ORRS     r3,r3,r6
        0x000000fa:    4718        .G      BX       r3
    $d
        0x000000fc:    00004148    HA..    DCD    16712
        0x00000100:    00004168    hA..    DCD    16744
    $t
    !!handler_copy
    __scatterload_copy
        0x00000104:    3a10        .:      SUBS     r2,r2,#0x10
        0x00000106:    d302        ..      BCC      0x10e ; __scatterload_copy + 10
        0x00000108:    c878        x.      LDM      r0!,{r3-r6}
        0x0000010a:    c178        x.      STM      r1!,{r3-r6}
        0x0000010c:    d8fa        ..      BHI      __scatterload_copy ; 0x104
        0x0000010e:    0752        R.      LSLS     r2,r2,#29
        0x00000110:    d301        ..      BCC      0x116 ; __scatterload_copy + 18
        0x00000112:    c830        0.      LDM      r0!,{r4,r5}
        0x00000114:    c130        0.      STM      r1!,{r4,r5}
        0x00000116:    d501        ..      BPL      0x11c ; __scatterload_copy + 24
        0x00000118:    6804        .h      LDR      r4,[r0,#0]
        0x0000011a:    600c        .`      STR      r4,[r1,#0]
        0x0000011c:    4770        pG      BX       lr
        0x0000011e:    0000        ..      MOVS     r0,r0
    !!handler_zi
    __scatterload_zeroinit
        0x00000120:    2300        .#      MOVS     r3,#0
        0x00000122:    2400        .$      MOVS     r4,#0
        0x00000124:    2500        .%      MOVS     r5,#0
        0x00000126:    2600        .&      MOVS     r6,#0
        0x00000128:    3a10        .:      SUBS     r2,r2,#0x10
        0x0000012a:    d301        ..      BCC      0x130 ; __scatterload_zeroinit + 16
        0x0000012c:    c178        x.      STM      r1!,{r3-r6}
        0x0000012e:    d8fb        ..      BHI      0x128 ; __scatterload_zeroinit + 8
        0x00000130:    0752        R.      LSLS     r2,r2,#29
        0x00000132:    d300        ..      BCC      0x136 ; __scatterload_zeroinit + 22
        0x00000134:    c130        0.      STM      r1!,{r4,r5}
        0x00000136:    d500        ..      BPL      0x13a ; __scatterload_zeroinit + 26
        0x00000138:    600b        .`      STR      r3,[r1,#0]
        0x0000013a:    4770        pG      BX       lr
    .ARM.Collect$$libinit$$00000000
    __rt_lib_init
        0x0000013c:    b51f        ..      PUSH     {r0-r4,lr}
    .ARM.Collect$$libinit$$00000001
    __rt_lib_init_fp_1
        0x0000013e:    46c0        .F      MOV      r8,r8
        0x00000140:    46c0        .F      MOV      r8,r8
    .ARM.Collect$$libinit$$00000008
    .ARM.Collect$$libinit$$0000000A
    .ARM.Collect$$libinit$$0000000C
    .ARM.Collect$$libinit$$0000000F
    .ARM.Collect$$libinit$$00000011
    .ARM.Collect$$libinit$$00000013
    .ARM.Collect$$libinit$$00000015
    .ARM.Collect$$libinit$$00000017
    .ARM.Collect$$libinit$$00000019
    .ARM.Collect$$libinit$$0000001B
    .ARM.Collect$$libinit$$0000001D
    .ARM.Collect$$libinit$$0000001F
    .ARM.Collect$$libinit$$00000021
    .ARM.Collect$$libinit$$00000023
    .ARM.Collect$$libinit$$0000002A
    .ARM.Collect$$libinit$$0000002C
    .ARM.Collect$$libinit$$0000002E
    .ARM.Collect$$libinit$$00000030
    .ARM.Collect$$libinit$$00000031
    __rt_lib_init_alloca_1
    __rt_lib_init_argv_1
    __rt_lib_init_atexit_1
    __rt_lib_init_clock_1
    __rt_lib_init_cpp_1
    __rt_lib_init_exceptions_1
    __rt_lib_init_fp_trap_1
    __rt_lib_init_getenv_1
    __rt_lib_init_heap_1
    __rt_lib_init_lc_collate_1
    __rt_lib_init_lc_ctype_1
    __rt_lib_init_lc_monetary_1
    __rt_lib_init_lc_numeric_1
    __rt_lib_init_lc_time_1
    __rt_lib_init_rand_1
    __rt_lib_init_return
    __rt_lib_init_signal_1
    __rt_lib_init_stdio_1
    __rt_lib_init_user_alloc_1
        0x00000142:    bd1f        ..      POP      {r0-r4,pc}
    .ARM.Collect$$libshutdown$$00000000
    __rt_lib_shutdown
        0x00000144:    b510        ..      PUSH     {r4,lr}
    .ARM.Collect$$libshutdown$$00000003
    .ARM.Collect$$libshutdown$$00000006
    .ARM.Collect$$libshutdown$$00000009
    .ARM.Collect$$libshutdown$$0000000B
    .ARM.Collect$$libshutdown$$0000000E
    .ARM.Collect$$libshutdown$$0000000F
    __rt_lib_shutdown_fp_trap_1
    __rt_lib_shutdown_heap_1
    __rt_lib_shutdown_return
    __rt_lib_shutdown_signal_1
    __rt_lib_shutdown_stdio_1
    __rt_lib_shutdown_user_alloc_1
        0x00000146:    bd10        ..      POP      {r4,pc}
    .ARM.Collect$$rtentry$$00000000
    .ARM.Collect$$rtentry$$00000002
    .ARM.Collect$$rtentry$$00000004
    __rt_entry
    __rt_entry_presh_1
    __rt_entry_sh
        0x00000148:    f000f8f0    ....    BL       __user_setup_stackheap ; 0x32c
        0x0000014c:    4611        .F      MOV      r1,r2
    .ARM.Collect$$rtentry$$00000009
    .ARM.Collect$$rtentry$$0000000A
    __rt_entry_li
    __rt_entry_postsh_1
        0x0000014e:    f7fffff5    ....    BL       __rt_lib_init ; 0x13c
    .ARM.Collect$$rtentry$$0000000C
    .ARM.Collect$$rtentry$$0000000D
    __rt_entry_main
    __rt_entry_postli_1
        0x00000152:    f003fe43    ..C.    BL       main ; 0x3ddc
        0x00000156:    f000f908    ....    BL       exit ; 0x36a
    .ARM.Collect$$rtexit$$00000000
    __rt_exit
        0x0000015a:    b403        ..      PUSH     {r0,r1}
    .ARM.Collect$$rtexit$$00000002
    .ARM.Collect$$rtexit$$00000003
    __rt_exit_ls
    __rt_exit_prels_1
        0x0000015c:    f7fffff2    ....    BL       __rt_lib_shutdown ; 0x144
    .ARM.Collect$$rtexit$$00000004
    __rt_exit_exit
        0x00000160:    bc03        ..      POP      {r0,r1}
        0x00000162:    f000f90d    ....    BL       _sys_exit ; 0x380
        0x00000166:    0000        ..      MOVS     r0,r0
    .text
    Reset_Handler
        0x00000168:    480d        .H      LDR      r0,[pc,#52] ; [0x1a0] = 0x50000100
        0x0000016a:    490e        .I      LDR      r1,[pc,#56] ; [0x1a4] = 0x59
        0x0000016c:    6001        .`      STR      r1,[r0,#0]
        0x0000016e:    490e        .I      LDR      r1,[pc,#56] ; [0x1a8] = 0x16
        0x00000170:    6001        .`      STR      r1,[r0,#0]
        0x00000172:    490e        .I      LDR      r1,[pc,#56] ; [0x1ac] = 0x88
        0x00000174:    6001        .`      STR      r1,[r0,#0]
        0x00000176:    4a0e        .J      LDR      r2,[pc,#56] ; [0x1b0] = 0x50000024
        0x00000178:    490e        .I      LDR      r1,[pc,#56] ; [0x1b4] = 0x5aa5
        0x0000017a:    6011        .`      STR      r1,[r2,#0]
        0x0000017c:    2100        .!      MOVS     r1,#0
        0x0000017e:    6001        .`      STR      r1,[r0,#0]
        0x00000180:    480d        .H      LDR      r0,[pc,#52] ; [0x1b8] = 0x3925
        0x00000182:    4780        .G      BLX      r0
        0x00000184:    480d        .H      LDR      r0,[pc,#52] ; [0x1bc] = 0xc1
        0x00000186:    4700        .G      BX       r0
    NMI_Handler
        0x00000188:    e7fe        ..      B        NMI_Handler ; 0x188
    HardFault_Handler
        0x0000018a:    e7fe        ..      B        HardFault_Handler ; 0x18a
    SVC_Handler
        0x0000018c:    e7fe        ..      B        SVC_Handler ; 0x18c
    PendSV_Handler
        0x0000018e:    e7fe        ..      B        PendSV_Handler ; 0x18e
    SysTick_Handler
        0x00000190:    e7fe        ..      B        SysTick_Handler ; 0x190
    Default_Handler
    ACMP_IRQHandler
    ADC_IRQHandler
    CAN0_IRQHandler
    I2C0_IRQHandler
    I2C1_IRQHandler
    I2S_IRQHandler
    PS2_IRQHandler
    RTC_IRQHandler
    SPI0_IRQHandler
    SPI1_IRQHandler
    SPI2_IRQHandler
    SPI3_IRQHandler
        0x00000192:    e7fe        ..      B        Default_Handler ; 0x192
    __user_initial_stackheap
        0x00000194:    480a        .H      LDR      r0,[pc,#40] ; [0x1c0] = 0x20000578
        0x00000196:    490b        .I      LDR      r1,[pc,#44] ; [0x1c4] = 0x20000978
        0x00000198:    4a09        .J      LDR      r2,[pc,#36] ; [0x1c0] = 0x20000578
        0x0000019a:    4b0b        .K      LDR      r3,[pc,#44] ; [0x1c8] = 0x20000578
        0x0000019c:    4770        pG      BX       lr
    $d
        0x0000019e:    0000        ..      DCW    0
        0x000001a0:    50000100    ...P    DCD    1342177536
        0x000001a4:    00000059    Y...    DCD    89
        0x000001a8:    00000016    ....    DCD    22
        0x000001ac:    00000088    ....    DCD    136
        0x000001b0:    50000024    $..P    DCD    1342177316
        0x000001b4:    00005aa5    .Z..    DCD    23205
        0x000001b8:    00003925    %9..    DCD    14629
        0x000001bc:    000000c1    ....    DCD    193
        0x000001c0:    20000578    x..     DCD    536872312
        0x000001c4:    20000978    x..     DCD    536873336
        0x000001c8:    20000578    x..     DCD    536872312
    $t
    .text
    __aeabi_uidiv
    __aeabi_uidivmod
        0x000001cc:    2200        ."      MOVS     r2,#0
        0x000001ce:    0903        ..      LSRS     r3,r0,#4
        0x000001d0:    428b        .B      CMP      r3,r1
        0x000001d2:    d32c        ,.      BCC      0x22e ; __aeabi_idiv + 78
        0x000001d4:    0a03        ..      LSRS     r3,r0,#8
        0x000001d6:    428b        .B      CMP      r3,r1
        0x000001d8:    d311        ..      BCC      0x1fe ; __aeabi_idiv + 30
        0x000001da:    2300        .#      MOVS     r3,#0
        0x000001dc:    469c        .F      MOV      r12,r3
        0x000001de:    e04e        N.      B        0x27e ; __aeabi_idiv + 158
    __aeabi_idiv
    __aeabi_idivmod
        0x000001e0:    4603        .F      MOV      r3,r0
        0x000001e2:    430b        .C      ORRS     r3,r3,r1
        0x000001e4:    d43c        <.      BMI      0x260 ; __aeabi_idiv + 128
        0x000001e6:    2200        ."      MOVS     r2,#0
        0x000001e8:    0843        C.      LSRS     r3,r0,#1
        0x000001ea:    428b        .B      CMP      r3,r1
        0x000001ec:    d331        1.      BCC      0x252 ; __aeabi_idiv + 114
        0x000001ee:    0903        ..      LSRS     r3,r0,#4
        0x000001f0:    428b        .B      CMP      r3,r1
        0x000001f2:    d31c        ..      BCC      0x22e ; __aeabi_idiv + 78
        0x000001f4:    0a03        ..      LSRS     r3,r0,#8
        0x000001f6:    428b        .B      CMP      r3,r1
        0x000001f8:    d301        ..      BCC      0x1fe ; __aeabi_idiv + 30
        0x000001fa:    4694        .F      MOV      r12,r2
        0x000001fc:    e03f        ?.      B        0x27e ; __aeabi_idiv + 158
        0x000001fe:    09c3        ..      LSRS     r3,r0,#7
        0x00000200:    428b        .B      CMP      r3,r1
        0x00000202:    d301        ..      BCC      0x208 ; __aeabi_idiv + 40
        0x00000204:    01cb        ..      LSLS     r3,r1,#7
        0x00000206:    1ac0        ..      SUBS     r0,r0,r3
        0x00000208:    4152        RA      ADCS     r2,r2,r2
        0x0000020a:    0983        ..      LSRS     r3,r0,#6
        0x0000020c:    428b        .B      CMP      r3,r1
        0x0000020e:    d301        ..      BCC      0x214 ; __aeabi_idiv + 52
        0x00000210:    018b        ..      LSLS     r3,r1,#6
        0x00000212:    1ac0        ..      SUBS     r0,r0,r3
        0x00000214:    4152        RA      ADCS     r2,r2,r2
        0x00000216:    0943        C.      LSRS     r3,r0,#5
        0x00000218:    428b        .B      CMP      r3,r1
        0x0000021a:    d301        ..      BCC      0x220 ; __aeabi_idiv + 64
        0x0000021c:    014b        K.      LSLS     r3,r1,#5
        0x0000021e:    1ac0        ..      SUBS     r0,r0,r3
        0x00000220:    4152        RA      ADCS     r2,r2,r2
        0x00000222:    0903        ..      LSRS     r3,r0,#4
        0x00000224:    428b        .B      CMP      r3,r1
        0x00000226:    d301        ..      BCC      0x22c ; __aeabi_idiv + 76
        0x00000228:    010b        ..      LSLS     r3,r1,#4
        0x0000022a:    1ac0        ..      SUBS     r0,r0,r3
        0x0000022c:    4152        RA      ADCS     r2,r2,r2
        0x0000022e:    08c3        ..      LSRS     r3,r0,#3
        0x00000230:    428b        .B      CMP      r3,r1
        0x00000232:    d301        ..      BCC      0x238 ; __aeabi_idiv + 88
        0x00000234:    00cb        ..      LSLS     r3,r1,#3
        0x00000236:    1ac0        ..      SUBS     r0,r0,r3
        0x00000238:    4152        RA      ADCS     r2,r2,r2
        0x0000023a:    0883        ..      LSRS     r3,r0,#2
        0x0000023c:    428b        .B      CMP      r3,r1
        0x0000023e:    d301        ..      BCC      0x244 ; __aeabi_idiv + 100
        0x00000240:    008b        ..      LSLS     r3,r1,#2
        0x00000242:    1ac0        ..      SUBS     r0,r0,r3
        0x00000244:    4152        RA      ADCS     r2,r2,r2
        0x00000246:    0843        C.      LSRS     r3,r0,#1
        0x00000248:    428b        .B      CMP      r3,r1
        0x0000024a:    d301        ..      BCC      0x250 ; __aeabi_idiv + 112
        0x0000024c:    004b        K.      LSLS     r3,r1,#1
        0x0000024e:    1ac0        ..      SUBS     r0,r0,r3
        0x00000250:    4152        RA      ADCS     r2,r2,r2
        0x00000252:    1a41        A.      SUBS     r1,r0,r1
        0x00000254:    d200        ..      BCS      0x258 ; __aeabi_idiv + 120
        0x00000256:    4601        .F      MOV      r1,r0
        0x00000258:    4152        RA      ADCS     r2,r2,r2
        0x0000025a:    4610        .F      MOV      r0,r2
        0x0000025c:    4770        pG      BX       lr
        0x0000025e:    e05d        ].      B        0x31c ; __aeabi_idiv + 316
        0x00000260:    0fca        ..      LSRS     r2,r1,#31
        0x00000262:    d000        ..      BEQ      0x266 ; __aeabi_idiv + 134
        0x00000264:    4249        IB      RSBS     r1,r1,#0
        0x00000266:    1003        ..      ASRS     r3,r0,#32
        0x00000268:    d300        ..      BCC      0x26c ; __aeabi_idiv + 140
        0x0000026a:    4240        @B      RSBS     r0,r0,#0
        0x0000026c:    4053        S@      EORS     r3,r3,r2
        0x0000026e:    2200        ."      MOVS     r2,#0
        0x00000270:    469c        .F      MOV      r12,r3
        0x00000272:    0903        ..      LSRS     r3,r0,#4
        0x00000274:    428b        .B      CMP      r3,r1
        0x00000276:    d32d        -.      BCC      0x2d4 ; __aeabi_idiv + 244
        0x00000278:    0a03        ..      LSRS     r3,r0,#8
        0x0000027a:    428b        .B      CMP      r3,r1
        0x0000027c:    d312        ..      BCC      0x2a4 ; __aeabi_idiv + 196
        0x0000027e:    22fc        ."      MOVS     r2,#0xfc
        0x00000280:    0189        ..      LSLS     r1,r1,#6
        0x00000282:    ba12        ..      REV      r2,r2
        0x00000284:    0a03        ..      LSRS     r3,r0,#8
        0x00000286:    428b        .B      CMP      r3,r1
        0x00000288:    d30c        ..      BCC      0x2a4 ; __aeabi_idiv + 196
        0x0000028a:    0189        ..      LSLS     r1,r1,#6
        0x0000028c:    1192        ..      ASRS     r2,r2,#6
        0x0000028e:    428b        .B      CMP      r3,r1
        0x00000290:    d308        ..      BCC      0x2a4 ; __aeabi_idiv + 196
        0x00000292:    0189        ..      LSLS     r1,r1,#6
        0x00000294:    1192        ..      ASRS     r2,r2,#6
        0x00000296:    428b        .B      CMP      r3,r1
        0x00000298:    d304        ..      BCC      0x2a4 ; __aeabi_idiv + 196
        0x0000029a:    0189        ..      LSLS     r1,r1,#6
        0x0000029c:    d03a        :.      BEQ      0x314 ; __aeabi_idiv + 308
        0x0000029e:    1192        ..      ASRS     r2,r2,#6
        0x000002a0:    e000        ..      B        0x2a4 ; __aeabi_idiv + 196
        0x000002a2:    0989        ..      LSRS     r1,r1,#6
        0x000002a4:    09c3        ..      LSRS     r3,r0,#7
        0x000002a6:    428b        .B      CMP      r3,r1
        0x000002a8:    d301        ..      BCC      0x2ae ; __aeabi_idiv + 206
        0x000002aa:    01cb        ..      LSLS     r3,r1,#7
        0x000002ac:    1ac0        ..      SUBS     r0,r0,r3
        0x000002ae:    4152        RA      ADCS     r2,r2,r2
        0x000002b0:    0983        ..      LSRS     r3,r0,#6
        0x000002b2:    428b        .B      CMP      r3,r1
        0x000002b4:    d301        ..      BCC      0x2ba ; __aeabi_idiv + 218
        0x000002b6:    018b        ..      LSLS     r3,r1,#6
        0x000002b8:    1ac0        ..      SUBS     r0,r0,r3
        0x000002ba:    4152        RA      ADCS     r2,r2,r2
        0x000002bc:    0943        C.      LSRS     r3,r0,#5
        0x000002be:    428b        .B      CMP      r3,r1
        0x000002c0:    d301        ..      BCC      0x2c6 ; __aeabi_idiv + 230
        0x000002c2:    014b        K.      LSLS     r3,r1,#5
        0x000002c4:    1ac0        ..      SUBS     r0,r0,r3
        0x000002c6:    4152        RA      ADCS     r2,r2,r2
        0x000002c8:    0903        ..      LSRS     r3,r0,#4
        0x000002ca:    428b        .B      CMP      r3,r1
        0x000002cc:    d301        ..      BCC      0x2d2 ; __aeabi_idiv + 242
        0x000002ce:    010b        ..      LSLS     r3,r1,#4
        0x000002d0:    1ac0        ..      SUBS     r0,r0,r3
        0x000002d2:    4152        RA      ADCS     r2,r2,r2
        0x000002d4:    08c3        ..      LSRS     r3,r0,#3
        0x000002d6:    428b        .B      CMP      r3,r1
        0x000002d8:    d301        ..      BCC      0x2de ; __aeabi_idiv + 254
        0x000002da:    00cb        ..      LSLS     r3,r1,#3
        0x000002dc:    1ac0        ..      SUBS     r0,r0,r3
        0x000002de:    4152        RA      ADCS     r2,r2,r2
        0x000002e0:    0883        ..      LSRS     r3,r0,#2
        0x000002e2:    428b        .B      CMP      r3,r1
        0x000002e4:    d301        ..      BCC      0x2ea ; __aeabi_idiv + 266
        0x000002e6:    008b        ..      LSLS     r3,r1,#2
        0x000002e8:    1ac0        ..      SUBS     r0,r0,r3
        0x000002ea:    4152        RA      ADCS     r2,r2,r2
        0x000002ec:    d2d9        ..      BCS      0x2a2 ; __aeabi_idiv + 194
        0x000002ee:    0843        C.      LSRS     r3,r0,#1
        0x000002f0:    428b        .B      CMP      r3,r1
        0x000002f2:    d301        ..      BCC      0x2f8 ; __aeabi_idiv + 280
        0x000002f4:    004b        K.      LSLS     r3,r1,#1
        0x000002f6:    1ac0        ..      SUBS     r0,r0,r3
        0x000002f8:    4152        RA      ADCS     r2,r2,r2
        0x000002fa:    1a41        A.      SUBS     r1,r0,r1
        0x000002fc:    d200        ..      BCS      0x300 ; __aeabi_idiv + 288
        0x000002fe:    4601        .F      MOV      r1,r0
        0x00000300:    4663        cF      MOV      r3,r12
        0x00000302:    4152        RA      ADCS     r2,r2,r2
        0x00000304:    105b        [.      ASRS     r3,r3,#1
        0x00000306:    4610        .F      MOV      r0,r2
        0x00000308:    d301        ..      BCC      0x30e ; __aeabi_idiv + 302
        0x0000030a:    4240        @B      RSBS     r0,r0,#0
        0x0000030c:    2b00        .+      CMP      r3,#0
        0x0000030e:    d500        ..      BPL      0x312 ; __aeabi_idiv + 306
        0x00000310:    4249        IB      RSBS     r1,r1,#0
        0x00000312:    4770        pG      BX       lr
        0x00000314:    4663        cF      MOV      r3,r12
        0x00000316:    105b        [.      ASRS     r3,r3,#1
        0x00000318:    d300        ..      BCC      0x31c ; __aeabi_idiv + 316
        0x0000031a:    4240        @B      RSBS     r0,r0,#0
        0x0000031c:    b501        ..      PUSH     {r0,lr}
        0x0000031e:    2000        .       MOVS     r0,#0
        0x00000320:    46c0        .F      MOV      r8,r8
        0x00000322:    46c0        .F      MOV      r8,r8
        0x00000324:    bd02        ..      POP      {r1,pc}
    .text
    __use_two_region_memory
        0x00000326:    4770        pG      BX       lr
    __rt_heap_escrow$2region
        0x00000328:    4770        pG      BX       lr
    __rt_heap_expand$2region
        0x0000032a:    4770        pG      BX       lr
    .text
    __user_setup_stackheap
        0x0000032c:    4675        uF      MOV      r5,lr
        0x0000032e:    f000f823    ..#.    BL       __user_libspace ; 0x378
        0x00000332:    46ae        .F      MOV      lr,r5
        0x00000334:    0005        ..      MOVS     r5,r0
        0x00000336:    4669        iF      MOV      r1,sp
        0x00000338:    4653        SF      MOV      r3,r10
        0x0000033a:    08c0        ..      LSRS     r0,r0,#3
        0x0000033c:    00c0        ..      LSLS     r0,r0,#3
        0x0000033e:    4685        .F      MOV      sp,r0
        0x00000340:    b018        ..      ADD      sp,sp,#0x60
        0x00000342:    b520         .      PUSH     {r5,lr}
        0x00000344:    f7ffff26    ..&.    BL       __user_initial_stackheap ; 0x194
        0x00000348:    bc60        `.      POP      {r5,r6}
        0x0000034a:    2700        .'      MOVS     r7,#0
        0x0000034c:    0849        I.      LSRS     r1,r1,#1
        0x0000034e:    46b6        .F      MOV      lr,r6
        0x00000350:    2600        .&      MOVS     r6,#0
        0x00000352:    c5c0        ..      STM      r5!,{r6,r7}
        0x00000354:    c5c0        ..      STM      r5!,{r6,r7}
        0x00000356:    c5c0        ..      STM      r5!,{r6,r7}
        0x00000358:    c5c0        ..      STM      r5!,{r6,r7}
        0x0000035a:    c5c0        ..      STM      r5!,{r6,r7}
        0x0000035c:    c5c0        ..      STM      r5!,{r6,r7}
        0x0000035e:    c5c0        ..      STM      r5!,{r6,r7}
        0x00000360:    c5c0        ..      STM      r5!,{r6,r7}
        0x00000362:    3d40        @=      SUBS     r5,r5,#0x40
        0x00000364:    0049        I.      LSLS     r1,r1,#1
        0x00000366:    468d        .F      MOV      sp,r1
        0x00000368:    4770        pG      BX       lr
    .text
    exit
        0x0000036a:    4604        .F      MOV      r4,r0
        0x0000036c:    46c0        .F      MOV      r8,r8
        0x0000036e:    46c0        .F      MOV      r8,r8
        0x00000370:    4620         F      MOV      r0,r4
        0x00000372:    f7fffef2    ....    BL       __rt_exit ; 0x15a
        0x00000376:    0000        ..      MOVS     r0,r0
    .text
    __user_libspace
    __user_perproc_libspace
    __user_perthread_libspace
        0x00000378:    4800        .H      LDR      r0,[pc,#0] ; [0x37c] = 0x20000518
        0x0000037a:    4770        pG      BX       lr
    $d
        0x0000037c:    20000518    ...     DCD    536872216
    $t
    .text
    _sys_exit
        0x00000380:    4901        .I      LDR      r1,[pc,#4] ; [0x388] = 0x20026
        0x00000382:    2018        .       MOVS     r0,#0x18
        0x00000384:    beab        ..      BKPT     #0xab
        0x00000386:    e7fe        ..      B        0x386 ; _sys_exit + 6
    $d
        0x00000388:    00020026    &...    DCD    131110
    $t
    .text
    __I$use$semihosting
    __use_no_semihosting_swi
        0x0000038c:    4770        pG      BX       lr
    .text
    __semihosting_library_function
        0x0000038e:    0000        ..      MOVS     r0,r0
    i.BOD_IRQHandler
    BOD_IRQHandler
        0x00000390:    b510        ..      PUSH     {r4,lr}
        0x00000392:    2005        .       MOVS     r0,#5
        0x00000394:    0700        ..      LSLS     r0,r0,#28
        0x00000396:    6980        .i      LDR      r0,[r0,#0x18]
        0x00000398:    2110        .!      MOVS     r1,#0x10
        0x0000039a:    4388        .C      BICS     r0,r0,r1
        0x0000039c:    3010        .0      ADDS     r0,r0,#0x10
        0x0000039e:    2105        .!      MOVS     r1,#5
        0x000003a0:    0709        ..      LSLS     r1,r1,#28
        0x000003a2:    6188        .a      STR      r0,[r1,#0x18]
        0x000003a4:    4803        .H      LDR      r0,[pc,#12] ; [0x3b4] = 0x200000cc
        0x000003a6:    6800        .h      LDR      r0,[r0,#0]
        0x000003a8:    2800        .(      CMP      r0,#0
        0x000003aa:    d002        ..      BEQ      0x3b2 ; BOD_IRQHandler + 34
        0x000003ac:    4801        .H      LDR      r0,[pc,#4] ; [0x3b4] = 0x200000cc
        0x000003ae:    6800        .h      LDR      r0,[r0,#0]
        0x000003b0:    4780        .G      BLX      r0
        0x000003b2:    bd10        ..      POP      {r4,pc}
    $d
        0x000003b4:    200000cc    ...     DCD    536871116
    $t
    i.BaudRateCalculator
    BaudRateCalculator
        0x000003b8:    b5f7        ..      PUSH     {r0-r2,r4-r7,lr}
        0x000003ba:    b082        ..      SUB      sp,sp,#8
        0x000003bc:    4617        .F      MOV      r7,r2
        0x000003be:    4831        1H      LDR      r0,[pc,#196] ; [0x484] = 0x40050000
        0x000003c0:    183c        <.      ADDS     r4,r7,r0
        0x000003c2:    9903        ..      LDR      r1,[sp,#0xc]
        0x000003c4:    9802        ..      LDR      r0,[sp,#8]
        0x000003c6:    f7ffff01    ....    BL       __aeabi_uidiv ; 0x1cc
        0x000003ca:    0700        ..      LSLS     r0,r0,#28
        0x000003cc:    0f00        ..      LSRS     r0,r0,#28
        0x000003ce:    2803        .(      CMP      r0,#3
        0x000003d0:    d20f        ..      BCS      0x3f2 ; BaudRateCalculator + 58
        0x000003d2:    6a60        `j      LDR      r0,[r4,#0x24]
        0x000003d4:    2101        .!      MOVS     r1,#1
        0x000003d6:    0749        I.      LSLS     r1,r1,#29
        0x000003d8:    4388        .C      BICS     r0,r0,r1
        0x000003da:    6260        `b      STR      r0,[r4,#0x24]
        0x000003dc:    6a60        `j      LDR      r0,[r4,#0x24]
        0x000003de:    1049        I.      ASRS     r1,r1,#1
        0x000003e0:    4388        .C      BICS     r0,r0,r1
        0x000003e2:    6260        `b      STR      r0,[r4,#0x24]
        0x000003e4:    9903        ..      LDR      r1,[sp,#0xc]
        0x000003e6:    9802        ..      LDR      r0,[sp,#8]
        0x000003e8:    f7fffef0    ....    BL       __aeabi_uidiv ; 0x1cc
        0x000003ec:    0900        ..      LSRS     r0,r0,#4
        0x000003ee:    1e86        ..      SUBS     r6,r0,#2
        0x000003f0:    e040        @.      B        0x474 ; BaudRateCalculator + 188
        0x000003f2:    6a60        `j      LDR      r0,[r4,#0x24]
        0x000003f4:    2101        .!      MOVS     r1,#1
        0x000003f6:    0749        I.      LSLS     r1,r1,#29
        0x000003f8:    4388        .C      BICS     r0,r0,r1
        0x000003fa:    1840        @.      ADDS     r0,r0,r1
        0x000003fc:    6260        `b      STR      r0,[r4,#0x24]
        0x000003fe:    6a60        `j      LDR      r0,[r4,#0x24]
        0x00000400:    1049        I.      ASRS     r1,r1,#1
        0x00000402:    4388        .C      BICS     r0,r0,r1
        0x00000404:    1840        @.      ADDS     r0,r0,r1
        0x00000406:    6260        `b      STR      r0,[r4,#0x24]
        0x00000408:    9903        ..      LDR      r1,[sp,#0xc]
        0x0000040a:    9802        ..      LDR      r0,[sp,#8]
        0x0000040c:    f7fffede    ....    BL       __aeabi_uidiv ; 0x1cc
        0x00000410:    1e86        ..      SUBS     r6,r0,#2
        0x00000412:    481d        .H      LDR      r0,[pc,#116] ; [0x488] = 0xffff
        0x00000414:    4286        .B      CMP      r6,r0
        0x00000416:    dd2d        -.      BLE      0x474 ; BaudRateCalculator + 188
        0x00000418:    6a60        `j      LDR      r0,[r4,#0x24]
        0x0000041a:    2101        .!      MOVS     r1,#1
        0x0000041c:    0749        I.      LSLS     r1,r1,#29
        0x0000041e:    4388        .C      BICS     r0,r0,r1
        0x00000420:    1840        @.      ADDS     r0,r0,r1
        0x00000422:    6260        `b      STR      r0,[r4,#0x24]
        0x00000424:    6a60        `j      LDR      r0,[r4,#0x24]
        0x00000426:    1049        I.      ASRS     r1,r1,#1
        0x00000428:    4388        .C      BICS     r0,r0,r1
        0x0000042a:    6260        `b      STR      r0,[r4,#0x24]
        0x0000042c:    2508        .%      MOVS     r5,#8
        0x0000042e:    e01e        ..      B        0x46e ; BaudRateCalculator + 182
        0x00000430:    9903        ..      LDR      r1,[sp,#0xc]
        0x00000432:    9802        ..      LDR      r0,[sp,#8]
        0x00000434:    f7fffeca    ....    BL       __aeabi_uidiv ; 0x1cc
        0x00000438:    1c69        i.      ADDS     r1,r5,#1
        0x0000043a:    9001        ..      STR      r0,[sp,#4]
        0x0000043c:    f7fffec6    ....    BL       __aeabi_uidiv ; 0x1cc
        0x00000440:    2903        .)      CMP      r1,#3
        0x00000442:    d213        ..      BCS      0x46c ; BaudRateCalculator + 180
        0x00000444:    6a60        `j      LDR      r0,[r4,#0x24]
        0x00000446:    210f        .!      MOVS     r1,#0xf
        0x00000448:    0609        ..      LSLS     r1,r1,#24
        0x0000044a:    4388        .C      BICS     r0,r0,r1
        0x0000044c:    0629        ).      LSLS     r1,r5,#24
        0x0000044e:    220f        ."      MOVS     r2,#0xf
        0x00000450:    0612        ..      LSLS     r2,r2,#24
        0x00000452:    4011        .@      ANDS     r1,r1,r2
        0x00000454:    4308        .C      ORRS     r0,r0,r1
        0x00000456:    6260        `b      STR      r0,[r4,#0x24]
        0x00000458:    9903        ..      LDR      r1,[sp,#0xc]
        0x0000045a:    9802        ..      LDR      r0,[sp,#8]
        0x0000045c:    f7fffeb6    ....    BL       __aeabi_uidiv ; 0x1cc
        0x00000460:    1c69        i.      ADDS     r1,r5,#1
        0x00000462:    9001        ..      STR      r0,[sp,#4]
        0x00000464:    f7fffeb2    ....    BL       __aeabi_uidiv ; 0x1cc
        0x00000468:    1e86        ..      SUBS     r6,r0,#2
        0x0000046a:    e002        ..      B        0x472 ; BaudRateCalculator + 186
        0x0000046c:    1c6d        m.      ADDS     r5,r5,#1
        0x0000046e:    2d10        .-      CMP      r5,#0x10
        0x00000470:    dbde        ..      BLT      0x430 ; BaudRateCalculator + 120
        0x00000472:    bf00        ..      NOP      
        0x00000474:    6a60        `j      LDR      r0,[r4,#0x24]
        0x00000476:    0c00        ..      LSRS     r0,r0,#16
        0x00000478:    0400        ..      LSLS     r0,r0,#16
        0x0000047a:    b2b1        ..      UXTH     r1,r6
        0x0000047c:    4308        .C      ORRS     r0,r0,r1
        0x0000047e:    6260        `b      STR      r0,[r4,#0x24]
        0x00000480:    b005        ..      ADD      sp,sp,#0x14
        0x00000482:    bdf0        ..      POP      {r4-r7,pc}
    $d
        0x00000484:    40050000    ...@    DCD    1074069504
        0x00000488:    0000ffff    ....    DCD    65535
    $t
    i.CalTimerInitValue
    CalTimerInitValue
        0x0000048c:    b5f8        ..      PUSH     {r3-r7,lr}
        0x0000048e:    4607        .F      MOV      r7,r0
        0x00000490:    460e        .F      MOV      r6,r1
        0x00000492:    2f02        ./      CMP      r7,#2
        0x00000494:    d301        ..      BCC      0x49a ; CalTimerInitValue + 14
        0x00000496:    2e00        ..      CMP      r6,#0
        0x00000498:    d102        ..      BNE      0x4a0 ; CalTimerInitValue + 20
        0x0000049a:    2000        .       MOVS     r0,#0
        0x0000049c:    43c0        .C      MVNS     r0,r0
        0x0000049e:    bdf8        ..      POP      {r3-r7,pc}
        0x000004a0:    2401        .$      MOVS     r4,#1
        0x000004a2:    e011        ..      B        0x4c8 ; CalTimerInitValue + 60
        0x000004a4:    4630        0F      MOV      r0,r6
        0x000004a6:    4360        `C      MULS     r0,r4,r0
        0x000004a8:    4601        .F      MOV      r1,r0
        0x000004aa:    4638        8F      MOV      r0,r7
        0x000004ac:    f7fffe8e    ....    BL       __aeabi_uidiv ; 0x1cc
        0x000004b0:    4605        .F      MOV      r5,r0
        0x000004b2:    2d01        .-      CMP      r5,#1
        0x000004b4:    d907        ..      BLS      0x4c6 ; CalTimerInitValue + 58
        0x000004b6:    2001        .       MOVS     r0,#1
        0x000004b8:    0600        ..      LSLS     r0,r0,#24
        0x000004ba:    4285        .B      CMP      r5,r0
        0x000004bc:    d203        ..      BCS      0x4c6 ; CalTimerInitValue + 58
        0x000004be:    1e60        `.      SUBS     r0,r4,#1
        0x000004c0:    0600        ..      LSLS     r0,r0,#24
        0x000004c2:    4328        (C      ORRS     r0,r0,r5
        0x000004c4:    e7eb        ..      B        0x49e ; CalTimerInitValue + 18
        0x000004c6:    1c64        d.      ADDS     r4,r4,#1
        0x000004c8:    2cff        .,      CMP      r4,#0xff
        0x000004ca:    d9eb        ..      BLS      0x4a4 ; CalTimerInitValue + 24
        0x000004cc:    2000        .       MOVS     r0,#0
        0x000004ce:    43c0        .C      MVNS     r0,r0
        0x000004d0:    e7e5        ..      B        0x49e ; CalTimerInitValue + 18
        0x000004d2:    0000        ..      MOVS     r0,r0
    i.DrvGPIO_InitFunction
    DrvGPIO_InitFunction
        0x000004d4:    b510        ..      PUSH     {r4,lr}
        0x000004d6:    4601        .F      MOV      r1,r0
        0x000004d8:    000b        ..      MOVS     r3,r1
        0x000004da:    f003fc6b    ..k.    BL       __ARM_common_switch8 ; 0x3db4
    $d
        0x000004de:    203e        >       DCW    8254
        0x000004e0:    5c4b412a    *AK\    DCD    1548435754
        0x000004e4:    947e7d74    t}~.    DCD    2491317620
        0x000004e8:    eff1b4a4    ....    DCD    4025595044
        0x000004ec:    ebecedee    ....    DCD    3958173166
        0x000004f0:    e7e8e9ea    ....    DCD    3890801130
        0x000004f4:    e3e4e5e6    ....    DCD    3823429094
        0x000004f8:    dfe0e1e2    ....    DCD    3756057058
        0x000004fc:    dbdcddde    ....    DCD    3688685022
        0x00000500:    d7d8d9da    ....    DCD    3621312986
        0x00000504:    d3d4d5d6    ....    DCD    3553940950
        0x00000508:    cfd0d1d2    ....    DCD    3486568914
        0x0000050c:    cbcccdce    ....    DCD    3419196878
        0x00000510:    c7c8c9ca    ....    DCD    3351824842
        0x00000514:    c3c4c5c6    ....    DCD    3284452806
        0x00000518:    bfc0c1c2    ....    DCD    3217080770
        0x0000051c:    bdbe        ..      DCW    48574
    $t
        0x0000051e:    2000        .       MOVS     r0,#0
        0x00000520:    2305        .#      MOVS     r3,#5
        0x00000522:    071b        ..      LSLS     r3,r3,#28
        0x00000524:    6318        .c      STR      r0,[r3,#0x30]
        0x00000526:    6358        Xc      STR      r0,[r3,#0x34]
        0x00000528:    6398        .c      STR      r0,[r3,#0x38]
        0x0000052a:    63d8        .c      STR      r0,[r3,#0x3c]
        0x0000052c:    4bfa        .K      LDR      r3,[pc,#1000] ; [0x918] = 0x50000040
        0x0000052e:    6018        .`      STR      r0,[r3,#0]
        0x00000530:    e371        q.      B        0xc16 ; DrvGPIO_InitFunction + 1858
        0x00000532:    2005        .       MOVS     r0,#5
        0x00000534:    0700        ..      LSLS     r0,r0,#28
        0x00000536:    6b40        @k      LDR      r0,[r0,#0x34]
        0x00000538:    2301        .#      MOVS     r3,#1
        0x0000053a:    031b        ..      LSLS     r3,r3,#12
        0x0000053c:    4318        .C      ORRS     r0,r0,r3
        0x0000053e:    2305        .#      MOVS     r3,#5
        0x00000540:    071b        ..      LSLS     r3,r3,#28
        0x00000542:    6358        Xc      STR      r0,[r3,#0x34]
        0x00000544:    48f4        .H      LDR      r0,[pc,#976] ; [0x918] = 0x50000040
        0x00000546:    6900        .i      LDR      r0,[r0,#0x10]
        0x00000548:    2301        .#      MOVS     r3,#1
        0x0000054a:    029b        ..      LSLS     r3,r3,#10
        0x0000054c:    4318        .C      ORRS     r0,r0,r3
        0x0000054e:    4bf2        .K      LDR      r3,[pc,#968] ; [0x918] = 0x50000040
        0x00000550:    6118        .a      STR      r0,[r3,#0x10]
        0x00000552:    4618        .F      MOV      r0,r3
        0x00000554:    6900        .i      LDR      r0,[r0,#0x10]
        0x00000556:    015b        [.      LSLS     r3,r3,#5
        0x00000558:    4398        .C      BICS     r0,r0,r3
        0x0000055a:    4bef        .K      LDR      r3,[pc,#956] ; [0x918] = 0x50000040
        0x0000055c:    6118        .a      STR      r0,[r3,#0x10]
        0x0000055e:    e35a        Z.      B        0xc16 ; DrvGPIO_InitFunction + 1858
        0x00000560:    2005        .       MOVS     r0,#5
        0x00000562:    0700        ..      LSLS     r0,r0,#28
        0x00000564:    6b00        .k      LDR      r0,[r0,#0x30]
        0x00000566:    2303        .#      MOVS     r3,#3
        0x00000568:    021b        ..      LSLS     r3,r3,#8
        0x0000056a:    4318        .C      ORRS     r0,r0,r3
        0x0000056c:    2305        .#      MOVS     r3,#5
        0x0000056e:    071b        ..      LSLS     r3,r3,#28
        0x00000570:    6318        .c      STR      r0,[r3,#0x30]
        0x00000572:    e350        P.      B        0xc16 ; DrvGPIO_InitFunction + 1858
        0x00000574:    2005        .       MOVS     r0,#5
        0x00000576:    0700        ..      LSLS     r0,r0,#28
        0x00000578:    6b00        .k      LDR      r0,[r0,#0x30]
        0x0000057a:    2303        .#      MOVS     r3,#3
        0x0000057c:    029b        ..      LSLS     r3,r3,#10
        0x0000057e:    4318        .C      ORRS     r0,r0,r3
        0x00000580:    2305        .#      MOVS     r3,#5
        0x00000582:    071b        ..      LSLS     r3,r3,#28
        0x00000584:    6318        .c      STR      r0,[r3,#0x30]
        0x00000586:    48e4        .H      LDR      r0,[pc,#912] ; [0x918] = 0x50000040
        0x00000588:    6900        .i      LDR      r0,[r0,#0x10]
        0x0000058a:    2301        .#      MOVS     r3,#1
        0x0000058c:    02db        ..      LSLS     r3,r3,#11
        0x0000058e:    4398        .C      BICS     r0,r0,r3
        0x00000590:    4be1        .K      LDR      r3,[pc,#900] ; [0x918] = 0x50000040
        0x00000592:    6118        .a      STR      r0,[r3,#0x10]
        0x00000594:    e33f        ?.      B        0xc16 ; DrvGPIO_InitFunction + 1858
        0x00000596:    2005        .       MOVS     r0,#5
        0x00000598:    0700        ..      LSLS     r0,r0,#28
        0x0000059a:    6b80        .k      LDR      r0,[r0,#0x38]
        0x0000059c:    230f        .#      MOVS     r3,#0xf
        0x0000059e:    4318        .C      ORRS     r0,r0,r3
        0x000005a0:    2305        .#      MOVS     r3,#5
        0x000005a2:    071b        ..      LSLS     r3,r3,#28
        0x000005a4:    6398        .c      STR      r0,[r3,#0x38]
        0x000005a6:    4618        .F      MOV      r0,r3
        0x000005a8:    6b00        .k      LDR      r0,[r0,#0x30]
        0x000005aa:    2301        .#      MOVS     r3,#1
        0x000005ac:    03db        ..      LSLS     r3,r3,#15
        0x000005ae:    4318        .C      ORRS     r0,r0,r3
        0x000005b0:    2305        .#      MOVS     r3,#5
        0x000005b2:    071b        ..      LSLS     r3,r3,#28
        0x000005b4:    6318        .c      STR      r0,[r3,#0x30]
        0x000005b6:    48d8        .H      LDR      r0,[pc,#864] ; [0x918] = 0x50000040
        0x000005b8:    6900        .i      LDR      r0,[r0,#0x10]
        0x000005ba:    231f        .#      MOVS     r3,#0x1f
        0x000005bc:    015b        [.      LSLS     r3,r3,#5
        0x000005be:    4318        .C      ORRS     r0,r0,r3
        0x000005c0:    4bd5        .K      LDR      r3,[pc,#852] ; [0x918] = 0x50000040
        0x000005c2:    6118        .a      STR      r0,[r3,#0x10]
        0x000005c4:    e327        '.      B        0xc16 ; DrvGPIO_InitFunction + 1858
        0x000005c6:    2005        .       MOVS     r0,#5
        0x000005c8:    0700        ..      LSLS     r0,r0,#28
        0x000005ca:    6bc0        .k      LDR      r0,[r0,#0x3c]
        0x000005cc:    23c0        .#      MOVS     r3,#0xc0
        0x000005ce:    4318        .C      ORRS     r0,r0,r3
        0x000005d0:    2305        .#      MOVS     r3,#5
        0x000005d2:    071b        ..      LSLS     r3,r3,#28
        0x000005d4:    63d8        .c      STR      r0,[r3,#0x3c]
        0x000005d6:    e31e        ..      B        0xc16 ; DrvGPIO_InitFunction + 1858
        0x000005d8:    bf00        ..      NOP      
        0x000005da:    2906        .)      CMP      r1,#6
        0x000005dc:    d101        ..      BNE      0x5e2 ; DrvGPIO_InitFunction + 270
        0x000005de:    2206        ."      MOVS     r2,#6
        0x000005e0:    e000        ..      B        0x5e4 ; DrvGPIO_InitFunction + 272
        0x000005e2:    220e        ."      MOVS     r2,#0xe
        0x000005e4:    2005        .       MOVS     r0,#5
        0x000005e6:    0700        ..      LSLS     r0,r0,#28
        0x000005e8:    6b80        .k      LDR      r0,[r0,#0x38]
        0x000005ea:    2303        .#      MOVS     r3,#3
        0x000005ec:    4093        .@      LSLS     r3,r3,r2
        0x000005ee:    4318        .C      ORRS     r0,r0,r3
        0x000005f0:    2305        .#      MOVS     r3,#5
        0x000005f2:    071b        ..      LSLS     r3,r3,#28
        0x000005f4:    6398        .c      STR      r0,[r3,#0x38]
        0x000005f6:    48c8        .H      LDR      r0,[pc,#800] ; [0x918] = 0x50000040
        0x000005f8:    6900        .i      LDR      r0,[r0,#0x10]
        0x000005fa:    2301        .#      MOVS     r3,#1
        0x000005fc:    02db        ..      LSLS     r3,r3,#11
        0x000005fe:    4398        .C      BICS     r0,r0,r3
        0x00000600:    4bc5        .K      LDR      r3,[pc,#788] ; [0x918] = 0x50000040
        0x00000602:    6118        .a      STR      r0,[r3,#0x10]
        0x00000604:    e307        ..      B        0xc16 ; DrvGPIO_InitFunction + 1858
        0x00000606:    2005        .       MOVS     r0,#5
        0x00000608:    0700        ..      LSLS     r0,r0,#28
        0x0000060a:    6b80        .k      LDR      r0,[r0,#0x38]
        0x0000060c:    230f        .#      MOVS     r3,#0xf
        0x0000060e:    4318        .C      ORRS     r0,r0,r3
        0x00000610:    2305        .#      MOVS     r3,#5
        0x00000612:    071b        ..      LSLS     r3,r3,#28
        0x00000614:    6398        .c      STR      r0,[r3,#0x38]
        0x00000616:    48c0        .H      LDR      r0,[pc,#768] ; [0x918] = 0x50000040
        0x00000618:    6900        .i      LDR      r0,[r0,#0x10]
        0x0000061a:    23ff        .#      MOVS     r3,#0xff
        0x0000061c:    33e1        .3      ADDS     r3,r3,#0xe1
        0x0000061e:    4398        .C      BICS     r0,r0,r3
        0x00000620:    4bbd        .K      LDR      r3,[pc,#756] ; [0x918] = 0x50000040
        0x00000622:    6118        .a      STR      r0,[r3,#0x10]
        0x00000624:    e2f7        ..      B        0xc16 ; DrvGPIO_InitFunction + 1858
        0x00000626:    2005        .       MOVS     r0,#5
        0x00000628:    0700        ..      LSLS     r0,r0,#28
        0x0000062a:    6b40        @k      LDR      r0,[r0,#0x34]
        0x0000062c:    2301        .#      MOVS     r3,#1
        0x0000062e:    029b        ..      LSLS     r3,r3,#10
        0x00000630:    4318        .C      ORRS     r0,r0,r3
        0x00000632:    2305        .#      MOVS     r3,#5
        0x00000634:    071b        ..      LSLS     r3,r3,#28
        0x00000636:    6358        Xc      STR      r0,[r3,#0x34]
        0x00000638:    48b7        .H      LDR      r0,[pc,#732] ; [0x918] = 0x50000040
        0x0000063a:    6900        .i      LDR      r0,[r0,#0x10]
        0x0000063c:    2301        .#      MOVS     r3,#1
        0x0000063e:    4318        .C      ORRS     r0,r0,r3
        0x00000640:    4bb5        .K      LDR      r3,[pc,#724] ; [0x918] = 0x50000040
        0x00000642:    6118        .a      STR      r0,[r3,#0x10]
        0x00000644:    e2e7        ..      B        0xc16 ; DrvGPIO_InitFunction + 1858
        0x00000646:    2005        .       MOVS     r0,#5
        0x00000648:    0700        ..      LSLS     r0,r0,#28
        0x0000064a:    6b80        .k      LDR      r0,[r0,#0x38]
        0x0000064c:    2330        0#      MOVS     r3,#0x30
        0x0000064e:    4318        .C      ORRS     r0,r0,r3
        0x00000650:    2305        .#      MOVS     r3,#5
        0x00000652:    071b        ..      LSLS     r3,r3,#28
        0x00000654:    6398        .c      STR      r0,[r3,#0x38]
        0x00000656:    e2de        ..      B        0xc16 ; DrvGPIO_InitFunction + 1858
        0x00000658:    e2db        ..      B        0xc12 ; DrvGPIO_InitFunction + 1854
        0x0000065a:    e264        d.      B        0xb26 ; DrvGPIO_InitFunction + 1618
        0x0000065c:    e282        ..      B        0xb64 ; DrvGPIO_InitFunction + 1680
        0x0000065e:    e248        H.      B        0xaf2 ; DrvGPIO_InitFunction + 1566
        0x00000660:    e246        F.      B        0xaf0 ; DrvGPIO_InitFunction + 1564
        0x00000662:    e213        ..      B        0xa8c ; DrvGPIO_InitFunction + 1464
        0x00000664:    e211        ..      B        0xa8a ; DrvGPIO_InitFunction + 1462
        0x00000666:    e1d9        ..      B        0xa1c ; DrvGPIO_InitFunction + 1352
        0x00000668:    e1d7        ..      B        0xa1a ; DrvGPIO_InitFunction + 1350
        0x0000066a:    e1b7        ..      B        0x9dc ; DrvGPIO_InitFunction + 1288
        0x0000066c:    e1b5        ..      B        0x9da ; DrvGPIO_InitFunction + 1286
        0x0000066e:    e241        A.      B        0xaf4 ; DrvGPIO_InitFunction + 1568
        0x00000670:    e20d        ..      B        0xa8e ; DrvGPIO_InitFunction + 1466
        0x00000672:    e1d4        ..      B        0xa1e ; DrvGPIO_InitFunction + 1354
        0x00000674:    e1b3        ..      B        0x9de ; DrvGPIO_InitFunction + 1290
        0x00000676:    e1a6        ..      B        0x9c6 ; DrvGPIO_InitFunction + 1266
        0x00000678:    e165        e.      B        0x946 ; DrvGPIO_InitFunction + 1138
        0x0000067a:    e163        c.      B        0x944 ; DrvGPIO_InitFunction + 1136
        0x0000067c:    e161        a.      B        0x942 ; DrvGPIO_InitFunction + 1134
        0x0000067e:    e15f        _.      B        0x940 ; DrvGPIO_InitFunction + 1132
        0x00000680:    e15d        ].      B        0x93e ; DrvGPIO_InitFunction + 1130
        0x00000682:    e15b        [.      B        0x93c ; DrvGPIO_InitFunction + 1128
        0x00000684:    e14a        J.      B        0x91c ; DrvGPIO_InitFunction + 1096
        0x00000686:    e137        7.      B        0x8f8 ; DrvGPIO_InitFunction + 1060
        0x00000688:    e129        ).      B        0x8de ; DrvGPIO_InitFunction + 1034
        0x0000068a:    e117        ..      B        0x8bc ; DrvGPIO_InitFunction + 1000
        0x0000068c:    e106        ..      B        0x89c ; DrvGPIO_InitFunction + 968
        0x0000068e:    e0f5        ..      B        0x87c ; DrvGPIO_InitFunction + 936
        0x00000690:    e0e4        ..      B        0x85c ; DrvGPIO_InitFunction + 904
        0x00000692:    e0d9        ..      B        0x848 ; DrvGPIO_InitFunction + 884
        0x00000694:    e0cc        ..      B        0x830 ; DrvGPIO_InitFunction + 860
        0x00000696:    e0c4        ..      B        0x822 ; DrvGPIO_InitFunction + 846
        0x00000698:    e0a3        ..      B        0x7e2 ; DrvGPIO_InitFunction + 782
        0x0000069a:    e0ae        ..      B        0x7fa ; DrvGPIO_InitFunction + 806
        0x0000069c:    e0ac        ..      B        0x7f8 ; DrvGPIO_InitFunction + 804
        0x0000069e:    e0aa        ..      B        0x7f6 ; DrvGPIO_InitFunction + 802
        0x000006a0:    e0a8        ..      B        0x7f4 ; DrvGPIO_InitFunction + 800
        0x000006a2:    e0a6        ..      B        0x7f2 ; DrvGPIO_InitFunction + 798
        0x000006a4:    e0a4        ..      B        0x7f0 ; DrvGPIO_InitFunction + 796
        0x000006a6:    e0b0        ..      B        0x80a ; DrvGPIO_InitFunction + 822
        0x000006a8:    e092        ..      B        0x7d0 ; DrvGPIO_InitFunction + 764
        0x000006aa:    e088        ..      B        0x7be ; DrvGPIO_InitFunction + 746
        0x000006ac:    e07e        ~.      B        0x7ac ; DrvGPIO_InitFunction + 728
        0x000006ae:    e073        s.      B        0x798 ; DrvGPIO_InitFunction + 708
        0x000006b0:    e062        b.      B        0x778 ; DrvGPIO_InitFunction + 676
        0x000006b2:    e057        W.      B        0x764 ; DrvGPIO_InitFunction + 656
        0x000006b4:    e04d        M.      B        0x752 ; DrvGPIO_InitFunction + 638
        0x000006b6:    e037        7.      B        0x728 ; DrvGPIO_InitFunction + 596
        0x000006b8:    e02d        -.      B        0x716 ; DrvGPIO_InitFunction + 578
        0x000006ba:    e022        ".      B        0x702 ; DrvGPIO_InitFunction + 558
        0x000006bc:    e011        ..      B        0x6e2 ; DrvGPIO_InitFunction + 526
        0x000006be:    e7ff        ..      B        0x6c0 ; DrvGPIO_InitFunction + 492
        0x000006c0:    2005        .       MOVS     r0,#5
        0x000006c2:    0700        ..      LSLS     r0,r0,#28
        0x000006c4:    6b80        .k      LDR      r0,[r0,#0x38]
        0x000006c6:    230f        .#      MOVS     r3,#0xf
        0x000006c8:    021b        ..      LSLS     r3,r3,#8
        0x000006ca:    4318        .C      ORRS     r0,r0,r3
        0x000006cc:    2305        .#      MOVS     r3,#5
        0x000006ce:    071b        ..      LSLS     r3,r3,#28
        0x000006d0:    6398        .c      STR      r0,[r3,#0x38]
        0x000006d2:    4891        .H      LDR      r0,[pc,#580] ; [0x918] = 0x50000040
        0x000006d4:    6900        .i      LDR      r0,[r0,#0x10]
        0x000006d6:    2301        .#      MOVS     r3,#1
        0x000006d8:    02db        ..      LSLS     r3,r3,#11
        0x000006da:    4398        .C      BICS     r0,r0,r3
        0x000006dc:    4b8e        .K      LDR      r3,[pc,#568] ; [0x918] = 0x50000040
        0x000006de:    6118        .a      STR      r0,[r3,#0x10]
        0x000006e0:    e299        ..      B        0xc16 ; DrvGPIO_InitFunction + 1858
        0x000006e2:    2005        .       MOVS     r0,#5
        0x000006e4:    0700        ..      LSLS     r0,r0,#28
        0x000006e6:    6b40        @k      LDR      r0,[r0,#0x34]
        0x000006e8:    2301        .#      MOVS     r3,#1
        0x000006ea:    025b        [.      LSLS     r3,r3,#9
        0x000006ec:    4318        .C      ORRS     r0,r0,r3
        0x000006ee:    2305        .#      MOVS     r3,#5
        0x000006f0:    071b        ..      LSLS     r3,r3,#28
        0x000006f2:    6358        Xc      STR      r0,[r3,#0x34]
        0x000006f4:    4888        .H      LDR      r0,[pc,#544] ; [0x918] = 0x50000040
        0x000006f6:    6900        .i      LDR      r0,[r0,#0x10]
        0x000006f8:    2302        .#      MOVS     r3,#2
        0x000006fa:    4318        .C      ORRS     r0,r0,r3
        0x000006fc:    4b86        .K      LDR      r3,[pc,#536] ; [0x918] = 0x50000040
        0x000006fe:    6118        .a      STR      r0,[r3,#0x10]
        0x00000700:    e289        ..      B        0xc16 ; DrvGPIO_InitFunction + 1858
        0x00000702:    2005        .       MOVS     r0,#5
        0x00000704:    0700        ..      LSLS     r0,r0,#28
        0x00000706:    6b80        .k      LDR      r0,[r0,#0x38]
        0x00000708:    2303        .#      MOVS     r3,#3
        0x0000070a:    031b        ..      LSLS     r3,r3,#12
        0x0000070c:    4318        .C      ORRS     r0,r0,r3
        0x0000070e:    2305        .#      MOVS     r3,#5
        0x00000710:    071b        ..      LSLS     r3,r3,#28
        0x00000712:    6398        .c      STR      r0,[r3,#0x38]
        0x00000714:    e27f        ..      B        0xc16 ; DrvGPIO_InitFunction + 1858
        0x00000716:    2005        .       MOVS     r0,#5
        0x00000718:    0700        ..      LSLS     r0,r0,#28
        0x0000071a:    6bc0        .k      LDR      r0,[r0,#0x3c]
        0x0000071c:    230f        .#      MOVS     r3,#0xf
        0x0000071e:    4318        .C      ORRS     r0,r0,r3
        0x00000720:    2305        .#      MOVS     r3,#5
        0x00000722:    071b        ..      LSLS     r3,r3,#28
        0x00000724:    63d8        .c      STR      r0,[r3,#0x3c]
        0x00000726:    e276        v.      B        0xc16 ; DrvGPIO_InitFunction + 1858
        0x00000728:    2005        .       MOVS     r0,#5
        0x0000072a:    0700        ..      LSLS     r0,r0,#28
        0x0000072c:    6b00        .k      LDR      r0,[r0,#0x30]
        0x0000072e:    2380        .#      MOVS     r3,#0x80
        0x00000730:    4318        .C      ORRS     r0,r0,r3
        0x00000732:    2305        .#      MOVS     r3,#5
        0x00000734:    071b        ..      LSLS     r3,r3,#28
        0x00000736:    6318        .c      STR      r0,[r3,#0x30]
        0x00000738:    4877        wH      LDR      r0,[pc,#476] ; [0x918] = 0x50000040
        0x0000073a:    6900        .i      LDR      r0,[r0,#0x10]
        0x0000073c:    2304        .#      MOVS     r3,#4
        0x0000073e:    4318        .C      ORRS     r0,r0,r3
        0x00000740:    4b75        uK      LDR      r3,[pc,#468] ; [0x918] = 0x50000040
        0x00000742:    6118        .a      STR      r0,[r3,#0x10]
        0x00000744:    4618        .F      MOV      r0,r3
        0x00000746:    6900        .i      LDR      r0,[r0,#0x10]
        0x00000748:    015b        [.      LSLS     r3,r3,#5
        0x0000074a:    4398        .C      BICS     r0,r0,r3
        0x0000074c:    4b72        rK      LDR      r3,[pc,#456] ; [0x918] = 0x50000040
        0x0000074e:    6118        .a      STR      r0,[r3,#0x10]
        0x00000750:    e261        a.      B        0xc16 ; DrvGPIO_InitFunction + 1858
        0x00000752:    2005        .       MOVS     r0,#5
        0x00000754:    0700        ..      LSLS     r0,r0,#28
        0x00000756:    6bc0        .k      LDR      r0,[r0,#0x3c]
        0x00000758:    2330        0#      MOVS     r3,#0x30
        0x0000075a:    4318        .C      ORRS     r0,r0,r3
        0x0000075c:    2305        .#      MOVS     r3,#5
        0x0000075e:    071b        ..      LSLS     r3,r3,#28
        0x00000760:    63d8        .c      STR      r0,[r3,#0x3c]
        0x00000762:    e258        X.      B        0xc16 ; DrvGPIO_InitFunction + 1858
        0x00000764:    2005        .       MOVS     r0,#5
        0x00000766:    0700        ..      LSLS     r0,r0,#28
        0x00000768:    6bc0        .k      LDR      r0,[r0,#0x3c]
        0x0000076a:    230f        .#      MOVS     r3,#0xf
        0x0000076c:    021b        ..      LSLS     r3,r3,#8
        0x0000076e:    4318        .C      ORRS     r0,r0,r3
        0x00000770:    2305        .#      MOVS     r3,#5
        0x00000772:    071b        ..      LSLS     r3,r3,#28
        0x00000774:    63d8        .c      STR      r0,[r3,#0x3c]
        0x00000776:    e24e        N.      B        0xc16 ; DrvGPIO_InitFunction + 1858
        0x00000778:    2005        .       MOVS     r0,#5
        0x0000077a:    0700        ..      LSLS     r0,r0,#28
        0x0000077c:    6b40        @k      LDR      r0,[r0,#0x34]
        0x0000077e:    2301        .#      MOVS     r3,#1
        0x00000780:    039b        ..      LSLS     r3,r3,#14
        0x00000782:    4318        .C      ORRS     r0,r0,r3
        0x00000784:    2305        .#      MOVS     r3,#5
        0x00000786:    071b        ..      LSLS     r3,r3,#28
        0x00000788:    6358        Xc      STR      r0,[r3,#0x34]
        0x0000078a:    4863        cH      LDR      r0,[pc,#396] ; [0x918] = 0x50000040
        0x0000078c:    6900        .i      LDR      r0,[r0,#0x10]
        0x0000078e:    2308        .#      MOVS     r3,#8
        0x00000790:    4318        .C      ORRS     r0,r0,r3
        0x00000792:    4b61        aK      LDR      r3,[pc,#388] ; [0x918] = 0x50000040
        0x00000794:    6118        .a      STR      r0,[r3,#0x10]
        0x00000796:    e23e        >.      B        0xc16 ; DrvGPIO_InitFunction + 1858
        0x00000798:    2005        .       MOVS     r0,#5
        0x0000079a:    0700        ..      LSLS     r0,r0,#28
        0x0000079c:    6bc0        .k      LDR      r0,[r0,#0x3c]
        0x0000079e:    2303        .#      MOVS     r3,#3
        0x000007a0:    031b        ..      LSLS     r3,r3,#12
        0x000007a2:    4318        .C      ORRS     r0,r0,r3
        0x000007a4:    2305        .#      MOVS     r3,#5
        0x000007a6:    071b        ..      LSLS     r3,r3,#28
        0x000007a8:    63d8        .c      STR      r0,[r3,#0x3c]
        0x000007aa:    e234        4.      B        0xc16 ; DrvGPIO_InitFunction + 1858
        0x000007ac:    2005        .       MOVS     r0,#5
        0x000007ae:    0700        ..      LSLS     r0,r0,#28
        0x000007b0:    6b80        .k      LDR      r0,[r0,#0x38]
        0x000007b2:    230f        .#      MOVS     r3,#0xf
        0x000007b4:    4318        .C      ORRS     r0,r0,r3
        0x000007b6:    2305        .#      MOVS     r3,#5
        0x000007b8:    071b        ..      LSLS     r3,r3,#28
        0x000007ba:    6398        .c      STR      r0,[r3,#0x38]
        0x000007bc:    e22b        +.      B        0xc16 ; DrvGPIO_InitFunction + 1858
        0x000007be:    2005        .       MOVS     r0,#5
        0x000007c0:    0700        ..      LSLS     r0,r0,#28
        0x000007c2:    6bc0        .k      LDR      r0,[r0,#0x3c]
        0x000007c4:    2302        .#      MOVS     r3,#2
        0x000007c6:    4318        .C      ORRS     r0,r0,r3
        0x000007c8:    2305        .#      MOVS     r3,#5
        0x000007ca:    071b        ..      LSLS     r3,r3,#28
        0x000007cc:    63d8        .c      STR      r0,[r3,#0x3c]
        0x000007ce:    e222        ".      B        0xc16 ; DrvGPIO_InitFunction + 1858
        0x000007d0:    2005        .       MOVS     r0,#5
        0x000007d2:    0700        ..      LSLS     r0,r0,#28
        0x000007d4:    6bc0        .k      LDR      r0,[r0,#0x3c]
        0x000007d6:    2304        .#      MOVS     r3,#4
        0x000007d8:    4318        .C      ORRS     r0,r0,r3
        0x000007da:    2305        .#      MOVS     r3,#5
        0x000007dc:    071b        ..      LSLS     r3,r3,#28
        0x000007de:    63d8        .c      STR      r0,[r3,#0x3c]
        0x000007e0:    e219        ..      B        0xc16 ; DrvGPIO_InitFunction + 1858
        0x000007e2:    484d        MH      LDR      r0,[pc,#308] ; [0x918] = 0x50000040
        0x000007e4:    6900        .i      LDR      r0,[r0,#0x10]
        0x000007e6:    2304        .#      MOVS     r3,#4
        0x000007e8:    4398        .C      BICS     r0,r0,r3
        0x000007ea:    4b4b        KK      LDR      r3,[pc,#300] ; [0x918] = 0x50000040
        0x000007ec:    6118        .a      STR      r0,[r3,#0x10]
        0x000007ee:    bf00        ..      NOP      
        0x000007f0:    bf00        ..      NOP      
        0x000007f2:    bf00        ..      NOP      
        0x000007f4:    bf00        ..      NOP      
        0x000007f6:    bf00        ..      NOP      
        0x000007f8:    bf00        ..      NOP      
        0x000007fa:    4847        GH      LDR      r0,[pc,#284] ; [0x918] = 0x50000040
        0x000007fc:    6900        .i      LDR      r0,[r0,#0x10]
        0x000007fe:    2301        .#      MOVS     r3,#1
        0x00000800:    02db        ..      LSLS     r3,r3,#11
        0x00000802:    4398        .C      BICS     r0,r0,r3
        0x00000804:    4b44        DK      LDR      r3,[pc,#272] ; [0x918] = 0x50000040
        0x00000806:    6118        .a      STR      r0,[r3,#0x10]
        0x00000808:    bf00        ..      NOP      
        0x0000080a:    2005        .       MOVS     r0,#5
        0x0000080c:    0700        ..      LSLS     r0,r0,#28
        0x0000080e:    6b00        .k      LDR      r0,[r0,#0x30]
        0x00000810:    460b        .F      MOV      r3,r1
        0x00000812:    3b17        .;      SUBS     r3,r3,#0x17
        0x00000814:    2401        .$      MOVS     r4,#1
        0x00000816:    409c        .@      LSLS     r4,r4,r3
        0x00000818:    4320         C      ORRS     r0,r0,r4
        0x0000081a:    2305        .#      MOVS     r3,#5
        0x0000081c:    071b        ..      LSLS     r3,r3,#28
        0x0000081e:    6318        .c      STR      r0,[r3,#0x30]
        0x00000820:    e1f9        ..      B        0xc16 ; DrvGPIO_InitFunction + 1858
        0x00000822:    483d        =H      LDR      r0,[pc,#244] ; [0x918] = 0x50000040
        0x00000824:    6900        .i      LDR      r0,[r0,#0x10]
        0x00000826:    2308        .#      MOVS     r3,#8
        0x00000828:    4398        .C      BICS     r0,r0,r3
        0x0000082a:    4b3b        ;K      LDR      r3,[pc,#236] ; [0x918] = 0x50000040
        0x0000082c:    6118        .a      STR      r0,[r3,#0x10]
        0x0000082e:    bf00        ..      NOP      
        0x00000830:    2005        .       MOVS     r0,#5
        0x00000832:    0700        ..      LSLS     r0,r0,#28
        0x00000834:    6b43        Ck      LDR      r3,[r0,#0x34]
        0x00000836:    4608        .F      MOV      r0,r1
        0x00000838:    3811        .8      SUBS     r0,r0,#0x11
        0x0000083a:    2401        .$      MOVS     r4,#1
        0x0000083c:    4084        .@      LSLS     r4,r4,r0
        0x0000083e:    4323        #C      ORRS     r3,r3,r4
        0x00000840:    2005        .       MOVS     r0,#5
        0x00000842:    0700        ..      LSLS     r0,r0,#28
        0x00000844:    6343        Cc      STR      r3,[r0,#0x34]
        0x00000846:    e1e6        ..      B        0xc16 ; DrvGPIO_InitFunction + 1858
        0x00000848:    2005        .       MOVS     r0,#5
        0x0000084a:    0700        ..      LSLS     r0,r0,#28
        0x0000084c:    6b40        @k      LDR      r0,[r0,#0x34]
        0x0000084e:    23ff        .#      MOVS     r3,#0xff
        0x00000850:    3301        .3      ADDS     r3,#1
        0x00000852:    4318        .C      ORRS     r0,r0,r3
        0x00000854:    2305        .#      MOVS     r3,#5
        0x00000856:    071b        ..      LSLS     r3,r3,#28
        0x00000858:    6358        Xc      STR      r0,[r3,#0x34]
        0x0000085a:    e1dc        ..      B        0xc16 ; DrvGPIO_InitFunction + 1858
        0x0000085c:    2005        .       MOVS     r0,#5
        0x0000085e:    0700        ..      LSLS     r0,r0,#28
        0x00000860:    6b40        @k      LDR      r0,[r0,#0x34]
        0x00000862:    2301        .#      MOVS     r3,#1
        0x00000864:    025b        [.      LSLS     r3,r3,#9
        0x00000866:    4318        .C      ORRS     r0,r0,r3
        0x00000868:    2305        .#      MOVS     r3,#5
        0x0000086a:    071b        ..      LSLS     r3,r3,#28
        0x0000086c:    6358        Xc      STR      r0,[r3,#0x34]
        0x0000086e:    482a        *H      LDR      r0,[pc,#168] ; [0x918] = 0x50000040
        0x00000870:    6900        .i      LDR      r0,[r0,#0x10]
        0x00000872:    2302        .#      MOVS     r3,#2
        0x00000874:    4398        .C      BICS     r0,r0,r3
        0x00000876:    4b28        (K      LDR      r3,[pc,#160] ; [0x918] = 0x50000040
        0x00000878:    6118        .a      STR      r0,[r3,#0x10]
        0x0000087a:    e1cc        ..      B        0xc16 ; DrvGPIO_InitFunction + 1858
        0x0000087c:    2005        .       MOVS     r0,#5
        0x0000087e:    0700        ..      LSLS     r0,r0,#28
        0x00000880:    6b40        @k      LDR      r0,[r0,#0x34]
        0x00000882:    2301        .#      MOVS     r3,#1
        0x00000884:    029b        ..      LSLS     r3,r3,#10
        0x00000886:    4318        .C      ORRS     r0,r0,r3
        0x00000888:    2305        .#      MOVS     r3,#5
        0x0000088a:    071b        ..      LSLS     r3,r3,#28
        0x0000088c:    6358        Xc      STR      r0,[r3,#0x34]
        0x0000088e:    4822        "H      LDR      r0,[pc,#136] ; [0x918] = 0x50000040
        0x00000890:    6900        .i      LDR      r0,[r0,#0x10]
        0x00000892:    0840        @.      LSRS     r0,r0,#1
        0x00000894:    0040        @.      LSLS     r0,r0,#1
        0x00000896:    4b20         K      LDR      r3,[pc,#128] ; [0x918] = 0x50000040
        0x00000898:    6118        .a      STR      r0,[r3,#0x10]
        0x0000089a:    e1bc        ..      B        0xc16 ; DrvGPIO_InitFunction + 1858
        0x0000089c:    2005        .       MOVS     r0,#5
        0x0000089e:    0700        ..      LSLS     r0,r0,#28
        0x000008a0:    6b40        @k      LDR      r0,[r0,#0x34]
        0x000008a2:    2301        .#      MOVS     r3,#1
        0x000008a4:    02db        ..      LSLS     r3,r3,#11
        0x000008a6:    4318        .C      ORRS     r0,r0,r3
        0x000008a8:    2305        .#      MOVS     r3,#5
        0x000008aa:    071b        ..      LSLS     r3,r3,#28
        0x000008ac:    6358        Xc      STR      r0,[r3,#0x34]
        0x000008ae:    481a        .H      LDR      r0,[pc,#104] ; [0x918] = 0x50000040
        0x000008b0:    6900        .i      LDR      r0,[r0,#0x10]
        0x000008b2:    2310        .#      MOVS     r3,#0x10
        0x000008b4:    4398        .C      BICS     r0,r0,r3
        0x000008b6:    4b18        .K      LDR      r3,[pc,#96] ; [0x918] = 0x50000040
        0x000008b8:    6118        .a      STR      r0,[r3,#0x10]
        0x000008ba:    e1ac        ..      B        0xc16 ; DrvGPIO_InitFunction + 1858
        0x000008bc:    2005        .       MOVS     r0,#5
        0x000008be:    0700        ..      LSLS     r0,r0,#28
        0x000008c0:    6b40        @k      LDR      r0,[r0,#0x34]
        0x000008c2:    2301        .#      MOVS     r3,#1
        0x000008c4:    03db        ..      LSLS     r3,r3,#15
        0x000008c6:    4318        .C      ORRS     r0,r0,r3
        0x000008c8:    2305        .#      MOVS     r3,#5
        0x000008ca:    071b        ..      LSLS     r3,r3,#28
        0x000008cc:    6358        Xc      STR      r0,[r3,#0x34]
        0x000008ce:    4812        .H      LDR      r0,[pc,#72] ; [0x918] = 0x50000040
        0x000008d0:    6900        .i      LDR      r0,[r0,#0x10]
        0x000008d2:    2301        .#      MOVS     r3,#1
        0x000008d4:    061b        ..      LSLS     r3,r3,#24
        0x000008d6:    4318        .C      ORRS     r0,r0,r3
        0x000008d8:    4b0f        .K      LDR      r3,[pc,#60] ; [0x918] = 0x50000040
        0x000008da:    6118        .a      STR      r0,[r3,#0x10]
        0x000008dc:    e19b        ..      B        0xc16 ; DrvGPIO_InitFunction + 1858
        0x000008de:    480e        .H      LDR      r0,[pc,#56] ; [0x918] = 0x50000040
        0x000008e0:    6800        .h      LDR      r0,[r0,#0]
        0x000008e2:    2320         #      MOVS     r3,#0x20
        0x000008e4:    4318        .C      ORRS     r0,r0,r3
        0x000008e6:    4b0c        .K      LDR      r3,[pc,#48] ; [0x918] = 0x50000040
        0x000008e8:    6018        .`      STR      r0,[r3,#0]
        0x000008ea:    4618        .F      MOV      r0,r3
        0x000008ec:    6900        .i      LDR      r0,[r0,#0x10]
        0x000008ee:    04db        ..      LSLS     r3,r3,#19
        0x000008f0:    4318        .C      ORRS     r0,r0,r3
        0x000008f2:    4b09        .K      LDR      r3,[pc,#36] ; [0x918] = 0x50000040
        0x000008f4:    6118        .a      STR      r0,[r3,#0x10]
        0x000008f6:    e18e        ..      B        0xc16 ; DrvGPIO_InitFunction + 1858
        0x000008f8:    2005        .       MOVS     r0,#5
        0x000008fa:    0700        ..      LSLS     r0,r0,#28
        0x000008fc:    6b40        @k      LDR      r0,[r0,#0x34]
        0x000008fe:    2304        .#      MOVS     r3,#4
        0x00000900:    4318        .C      ORRS     r0,r0,r3
        0x00000902:    2305        .#      MOVS     r3,#5
        0x00000904:    071b        ..      LSLS     r3,r3,#28
        0x00000906:    6358        Xc      STR      r0,[r3,#0x34]
        0x00000908:    4803        .H      LDR      r0,[pc,#12] ; [0x918] = 0x50000040
        0x0000090a:    6900        .i      LDR      r0,[r0,#0x10]
        0x0000090c:    2301        .#      MOVS     r3,#1
        0x0000090e:    069b        ..      LSLS     r3,r3,#26
        0x00000910:    4318        .C      ORRS     r0,r0,r3
        0x00000912:    4b01        .K      LDR      r3,[pc,#4] ; [0x918] = 0x50000040
        0x00000914:    6118        .a      STR      r0,[r3,#0x10]
        0x00000916:    e17e        ~.      B        0xc16 ; DrvGPIO_InitFunction + 1858
    $d
        0x00000918:    50000040    @..P    DCD    1342177344
    $t
        0x0000091c:    2005        .       MOVS     r0,#5
        0x0000091e:    0700        ..      LSLS     r0,r0,#28
        0x00000920:    6b40        @k      LDR      r0,[r0,#0x34]
        0x00000922:    2308        .#      MOVS     r3,#8
        0x00000924:    4318        .C      ORRS     r0,r0,r3
        0x00000926:    2305        .#      MOVS     r3,#5
        0x00000928:    071b        ..      LSLS     r3,r3,#28
        0x0000092a:    6358        Xc      STR      r0,[r3,#0x34]
        0x0000092c:    48bb        .H      LDR      r0,[pc,#748] ; [0xc1c] = 0x50000040
        0x0000092e:    6900        .i      LDR      r0,[r0,#0x10]
        0x00000930:    2301        .#      MOVS     r3,#1
        0x00000932:    06db        ..      LSLS     r3,r3,#27
        0x00000934:    4318        .C      ORRS     r0,r0,r3
        0x00000936:    4bb9        .K      LDR      r3,[pc,#740] ; [0xc1c] = 0x50000040
        0x00000938:    6118        .a      STR      r0,[r3,#0x10]
        0x0000093a:    e16c        l.      B        0xc16 ; DrvGPIO_InitFunction + 1858
        0x0000093c:    bf00        ..      NOP      
        0x0000093e:    bf00        ..      NOP      
        0x00000940:    bf00        ..      NOP      
        0x00000942:    bf00        ..      NOP      
        0x00000944:    bf00        ..      NOP      
        0x00000946:    2929        ))      CMP      r1,#0x29
        0x00000948:    db03        ..      BLT      0x952 ; DrvGPIO_InitFunction + 1150
        0x0000094a:    292b        +)      CMP      r1,#0x2b
        0x0000094c:    dc01        ..      BGT      0x952 ; DrvGPIO_InitFunction + 1150
        0x0000094e:    2200        ."      MOVS     r2,#0
        0x00000950:    e000        ..      B        0x954 ; DrvGPIO_InitFunction + 1152
        0x00000952:    2204        ."      MOVS     r2,#4
        0x00000954:    2929        ))      CMP      r1,#0x29
        0x00000956:    d001        ..      BEQ      0x95c ; DrvGPIO_InitFunction + 1160
        0x00000958:    292c        ,)      CMP      r1,#0x2c
        0x0000095a:    d110        ..      BNE      0x97e ; DrvGPIO_InitFunction + 1194
        0x0000095c:    2005        .       MOVS     r0,#5
        0x0000095e:    0700        ..      LSLS     r0,r0,#28
        0x00000960:    6b40        @k      LDR      r0,[r0,#0x34]
        0x00000962:    230f        .#      MOVS     r3,#0xf
        0x00000964:    4093        .@      LSLS     r3,r3,r2
        0x00000966:    4318        .C      ORRS     r0,r0,r3
        0x00000968:    2305        .#      MOVS     r3,#5
        0x0000096a:    071b        ..      LSLS     r3,r3,#28
        0x0000096c:    6358        Xc      STR      r0,[r3,#0x34]
        0x0000096e:    48ab        .H      LDR      r0,[pc,#684] ; [0xc1c] = 0x50000040
        0x00000970:    6900        .i      LDR      r0,[r0,#0x10]
        0x00000972:    2301        .#      MOVS     r3,#1
        0x00000974:    02db        ..      LSLS     r3,r3,#11
        0x00000976:    4398        .C      BICS     r0,r0,r3
        0x00000978:    4ba8        .K      LDR      r3,[pc,#672] ; [0xc1c] = 0x50000040
        0x0000097a:    6118        .a      STR      r0,[r3,#0x10]
        0x0000097c:    e022        ".      B        0x9c4 ; DrvGPIO_InitFunction + 1264
        0x0000097e:    292a        *)      CMP      r1,#0x2a
        0x00000980:    d001        ..      BEQ      0x986 ; DrvGPIO_InitFunction + 1202
        0x00000982:    292d        -)      CMP      r1,#0x2d
        0x00000984:    d109        ..      BNE      0x99a ; DrvGPIO_InitFunction + 1222
        0x00000986:    2005        .       MOVS     r0,#5
        0x00000988:    0700        ..      LSLS     r0,r0,#28
        0x0000098a:    6b40        @k      LDR      r0,[r0,#0x34]
        0x0000098c:    2303        .#      MOVS     r3,#3
        0x0000098e:    4093        .@      LSLS     r3,r3,r2
        0x00000990:    4318        .C      ORRS     r0,r0,r3
        0x00000992:    2305        .#      MOVS     r3,#5
        0x00000994:    071b        ..      LSLS     r3,r3,#28
        0x00000996:    6358        Xc      STR      r0,[r3,#0x34]
        0x00000998:    e014        ..      B        0x9c4 ; DrvGPIO_InitFunction + 1264
        0x0000099a:    292b        +)      CMP      r1,#0x2b
        0x0000099c:    d001        ..      BEQ      0x9a2 ; DrvGPIO_InitFunction + 1230
        0x0000099e:    292e        .)      CMP      r1,#0x2e
        0x000009a0:    d110        ..      BNE      0x9c4 ; DrvGPIO_InitFunction + 1264
        0x000009a2:    2005        .       MOVS     r0,#5
        0x000009a4:    0700        ..      LSLS     r0,r0,#28
        0x000009a6:    6b40        @k      LDR      r0,[r0,#0x34]
        0x000009a8:    1c93        ..      ADDS     r3,r2,#2
        0x000009aa:    2403        .$      MOVS     r4,#3
        0x000009ac:    409c        .@      LSLS     r4,r4,r3
        0x000009ae:    4320         C      ORRS     r0,r0,r4
        0x000009b0:    2305        .#      MOVS     r3,#5
        0x000009b2:    071b        ..      LSLS     r3,r3,#28
        0x000009b4:    6358        Xc      STR      r0,[r3,#0x34]
        0x000009b6:    4899        .H      LDR      r0,[pc,#612] ; [0xc1c] = 0x50000040
        0x000009b8:    6900        .i      LDR      r0,[r0,#0x10]
        0x000009ba:    2301        .#      MOVS     r3,#1
        0x000009bc:    02db        ..      LSLS     r3,r3,#11
        0x000009be:    4398        .C      BICS     r0,r0,r3
        0x000009c0:    4b96        .K      LDR      r3,[pc,#600] ; [0xc1c] = 0x50000040
        0x000009c2:    6118        .a      STR      r0,[r3,#0x10]
        0x000009c4:    e127        '.      B        0xc16 ; DrvGPIO_InitFunction + 1858
        0x000009c6:    2005        .       MOVS     r0,#5
        0x000009c8:    0700        ..      LSLS     r0,r0,#28
        0x000009ca:    6bc0        .k      LDR      r0,[r0,#0x3c]
        0x000009cc:    2303        .#      MOVS     r3,#3
        0x000009ce:    039b        ..      LSLS     r3,r3,#14
        0x000009d0:    4318        .C      ORRS     r0,r0,r3
        0x000009d2:    2305        .#      MOVS     r3,#5
        0x000009d4:    071b        ..      LSLS     r3,r3,#28
        0x000009d6:    63d8        .c      STR      r0,[r3,#0x3c]
        0x000009d8:    e11d        ..      B        0xc16 ; DrvGPIO_InitFunction + 1858
        0x000009da:    bf00        ..      NOP      
        0x000009dc:    bf00        ..      NOP      
        0x000009de:    2930        0)      CMP      r1,#0x30
        0x000009e0:    d108        ..      BNE      0x9f4 ; DrvGPIO_InitFunction + 1312
        0x000009e2:    2005        .       MOVS     r0,#5
        0x000009e4:    0700        ..      LSLS     r0,r0,#28
        0x000009e6:    6b00        .k      LDR      r0,[r0,#0x30]
        0x000009e8:    020b        ..      LSLS     r3,r1,#8
        0x000009ea:    4318        .C      ORRS     r0,r0,r3
        0x000009ec:    2305        .#      MOVS     r3,#5
        0x000009ee:    071b        ..      LSLS     r3,r3,#28
        0x000009f0:    6318        .c      STR      r0,[r3,#0x30]
        0x000009f2:    e00a        ..      B        0xa0a ; DrvGPIO_InitFunction + 1334
        0x000009f4:    2005        .       MOVS     r0,#5
        0x000009f6:    0700        ..      LSLS     r0,r0,#28
        0x000009f8:    6b03        .k      LDR      r3,[r0,#0x30]
        0x000009fa:    4608        .F      MOV      r0,r1
        0x000009fc:    3828        (8      SUBS     r0,r0,#0x28
        0x000009fe:    2401        .$      MOVS     r4,#1
        0x00000a00:    4084        .@      LSLS     r4,r4,r0
        0x00000a02:    4323        #C      ORRS     r3,r3,r4
        0x00000a04:    2005        .       MOVS     r0,#5
        0x00000a06:    0700        ..      LSLS     r0,r0,#28
        0x00000a08:    6303        .c      STR      r3,[r0,#0x30]
        0x00000a0a:    4884        .H      LDR      r0,[pc,#528] ; [0xc1c] = 0x50000040
        0x00000a0c:    6900        .i      LDR      r0,[r0,#0x10]
        0x00000a0e:    2301        .#      MOVS     r3,#1
        0x00000a10:    02db        ..      LSLS     r3,r3,#11
        0x00000a12:    4398        .C      BICS     r0,r0,r3
        0x00000a14:    4b81        .K      LDR      r3,[pc,#516] ; [0xc1c] = 0x50000040
        0x00000a16:    6118        .a      STR      r0,[r3,#0x10]
        0x00000a18:    e0fd        ..      B        0xc16 ; DrvGPIO_InitFunction + 1858
        0x00000a1a:    bf00        ..      NOP      
        0x00000a1c:    bf00        ..      NOP      
        0x00000a1e:    2931        1)      CMP      r1,#0x31
        0x00000a20:    d116        ..      BNE      0xa50 ; DrvGPIO_InitFunction + 1404
        0x00000a22:    2005        .       MOVS     r0,#5
        0x00000a24:    0700        ..      LSLS     r0,r0,#28
        0x00000a26:    6b00        .k      LDR      r0,[r0,#0x30]
        0x00000a28:    2303        .#      MOVS     r3,#3
        0x00000a2a:    039b        ..      LSLS     r3,r3,#14
        0x00000a2c:    4318        .C      ORRS     r0,r0,r3
        0x00000a2e:    2305        .#      MOVS     r3,#5
        0x00000a30:    071b        ..      LSLS     r3,r3,#28
        0x00000a32:    6318        .c      STR      r0,[r3,#0x30]
        0x00000a34:    4879        yH      LDR      r0,[pc,#484] ; [0xc1c] = 0x50000040
        0x00000a36:    6900        .i      LDR      r0,[r0,#0x10]
        0x00000a38:    2301        .#      MOVS     r3,#1
        0x00000a3a:    025b        [.      LSLS     r3,r3,#9
        0x00000a3c:    4398        .C      BICS     r0,r0,r3
        0x00000a3e:    4b77        wK      LDR      r3,[pc,#476] ; [0xc1c] = 0x50000040
        0x00000a40:    6118        .a      STR      r0,[r3,#0x10]
        0x00000a42:    4618        .F      MOV      r0,r3
        0x00000a44:    6900        .i      LDR      r0,[r0,#0x10]
        0x00000a46:    015b        [.      LSLS     r3,r3,#5
        0x00000a48:    4398        .C      BICS     r0,r0,r3
        0x00000a4a:    4b74        tK      LDR      r3,[pc,#464] ; [0xc1c] = 0x50000040
        0x00000a4c:    6118        .a      STR      r0,[r3,#0x10]
        0x00000a4e:    e01b        ..      B        0xa88 ; DrvGPIO_InitFunction + 1460
        0x00000a50:    2005        .       MOVS     r0,#5
        0x00000a52:    0700        ..      LSLS     r0,r0,#28
        0x00000a54:    6b03        .k      LDR      r3,[r0,#0x30]
        0x00000a56:    4608        .F      MOV      r0,r1
        0x00000a58:    3828        (8      SUBS     r0,r0,#0x28
        0x00000a5a:    2401        .$      MOVS     r4,#1
        0x00000a5c:    4084        .@      LSLS     r4,r4,r0
        0x00000a5e:    4323        #C      ORRS     r3,r3,r4
        0x00000a60:    2005        .       MOVS     r0,#5
        0x00000a62:    0700        ..      LSLS     r0,r0,#28
        0x00000a64:    6303        .c      STR      r3,[r0,#0x30]
        0x00000a66:    2936        6)      CMP      r1,#0x36
        0x00000a68:    d107        ..      BNE      0xa7a ; DrvGPIO_InitFunction + 1446
        0x00000a6a:    486c        lH      LDR      r0,[pc,#432] ; [0xc1c] = 0x50000040
        0x00000a6c:    6900        .i      LDR      r0,[r0,#0x10]
        0x00000a6e:    2301        .#      MOVS     r3,#1
        0x00000a70:    02db        ..      LSLS     r3,r3,#11
        0x00000a72:    4398        .C      BICS     r0,r0,r3
        0x00000a74:    4b69        iK      LDR      r3,[pc,#420] ; [0xc1c] = 0x50000040
        0x00000a76:    6118        .a      STR      r0,[r3,#0x10]
        0x00000a78:    e006        ..      B        0xa88 ; DrvGPIO_InitFunction + 1460
        0x00000a7a:    4868        hH      LDR      r0,[pc,#416] ; [0xc1c] = 0x50000040
        0x00000a7c:    6900        .i      LDR      r0,[r0,#0x10]
        0x00000a7e:    2301        .#      MOVS     r3,#1
        0x00000a80:    025b        [.      LSLS     r3,r3,#9
        0x00000a82:    4398        .C      BICS     r0,r0,r3
        0x00000a84:    4b65        eK      LDR      r3,[pc,#404] ; [0xc1c] = 0x50000040
        0x00000a86:    6118        .a      STR      r0,[r3,#0x10]
        0x00000a88:    e0c5        ..      B        0xc16 ; DrvGPIO_InitFunction + 1858
        0x00000a8a:    bf00        ..      NOP      
        0x00000a8c:    bf00        ..      NOP      
        0x00000a8e:    2932        2)      CMP      r1,#0x32
        0x00000a90:    d115        ..      BNE      0xabe ; DrvGPIO_InitFunction + 1514
        0x00000a92:    2005        .       MOVS     r0,#5
        0x00000a94:    0700        ..      LSLS     r0,r0,#28
        0x00000a96:    6b40        @k      LDR      r0,[r0,#0x34]
        0x00000a98:    2301        .#      MOVS     r3,#1
        0x00000a9a:    02db        ..      LSLS     r3,r3,#11
        0x00000a9c:    4318        .C      ORRS     r0,r0,r3
        0x00000a9e:    2305        .#      MOVS     r3,#5
        0x00000aa0:    071b        ..      LSLS     r3,r3,#28
        0x00000aa2:    6358        Xc      STR      r0,[r3,#0x34]
        0x00000aa4:    485d        ]H      LDR      r0,[pc,#372] ; [0xc1c] = 0x50000040
        0x00000aa6:    6900        .i      LDR      r0,[r0,#0x10]
        0x00000aa8:    2310        .#      MOVS     r3,#0x10
        0x00000aaa:    4318        .C      ORRS     r0,r0,r3
        0x00000aac:    4b5b        [K      LDR      r3,[pc,#364] ; [0xc1c] = 0x50000040
        0x00000aae:    6118        .a      STR      r0,[r3,#0x10]
        0x00000ab0:    4618        .F      MOV      r0,r3
        0x00000ab2:    6800        .h      LDR      r0,[r0,#0]
        0x00000ab4:    2320         #      MOVS     r3,#0x20
        0x00000ab6:    4318        .C      ORRS     r0,r0,r3
        0x00000ab8:    4b58        XK      LDR      r3,[pc,#352] ; [0xc1c] = 0x50000040
        0x00000aba:    6018        .`      STR      r0,[r3,#0]
        0x00000abc:    e017        ..      B        0xaee ; DrvGPIO_InitFunction + 1562
        0x00000abe:    2938        8)      CMP      r1,#0x38
        0x00000ac0:    d10f        ..      BNE      0xae2 ; DrvGPIO_InitFunction + 1550
        0x00000ac2:    2005        .       MOVS     r0,#5
        0x00000ac4:    0700        ..      LSLS     r0,r0,#28
        0x00000ac6:    6b40        @k      LDR      r0,[r0,#0x34]
        0x00000ac8:    2301        .#      MOVS     r3,#1
        0x00000aca:    02db        ..      LSLS     r3,r3,#11
        0x00000acc:    4318        .C      ORRS     r0,r0,r3
        0x00000ace:    2305        .#      MOVS     r3,#5
        0x00000ad0:    071b        ..      LSLS     r3,r3,#28
        0x00000ad2:    6358        Xc      STR      r0,[r3,#0x34]
        0x00000ad4:    4851        QH      LDR      r0,[pc,#324] ; [0xc1c] = 0x50000040
        0x00000ad6:    6900        .i      LDR      r0,[r0,#0x10]
        0x00000ad8:    2310        .#      MOVS     r3,#0x10
        0x00000ada:    4318        .C      ORRS     r0,r0,r3
        0x00000adc:    4b4f        OK      LDR      r3,[pc,#316] ; [0xc1c] = 0x50000040
        0x00000ade:    6118        .a      STR      r0,[r3,#0x10]
        0x00000ae0:    e005        ..      B        0xaee ; DrvGPIO_InitFunction + 1562
        0x00000ae2:    484e        NH      LDR      r0,[pc,#312] ; [0xc1c] = 0x50000040
        0x00000ae4:    6800        .h      LDR      r0,[r0,#0]
        0x00000ae6:    2320         #      MOVS     r3,#0x20
        0x00000ae8:    4318        .C      ORRS     r0,r0,r3
        0x00000aea:    4b4c        LK      LDR      r3,[pc,#304] ; [0xc1c] = 0x50000040
        0x00000aec:    6018        .`      STR      r0,[r3,#0]
        0x00000aee:    e092        ..      B        0xc16 ; DrvGPIO_InitFunction + 1858
        0x00000af0:    bf00        ..      NOP      
        0x00000af2:    bf00        ..      NOP      
        0x00000af4:    2933        3)      CMP      r1,#0x33
        0x00000af6:    d106        ..      BNE      0xb06 ; DrvGPIO_InitFunction + 1586
        0x00000af8:    4848        HH      LDR      r0,[pc,#288] ; [0xc1c] = 0x50000040
        0x00000afa:    6800        .h      LDR      r0,[r0,#0]
        0x00000afc:    2303        .#      MOVS     r3,#3
        0x00000afe:    4318        .C      ORRS     r0,r0,r3
        0x00000b00:    4b46        FK      LDR      r3,[pc,#280] ; [0xc1c] = 0x50000040
        0x00000b02:    6018        .`      STR      r0,[r3,#0]
        0x00000b04:    e00e        ..      B        0xb24 ; DrvGPIO_InitFunction + 1616
        0x00000b06:    293a        :)      CMP      r1,#0x3a
        0x00000b08:    d106        ..      BNE      0xb18 ; DrvGPIO_InitFunction + 1604
        0x00000b0a:    4844        DH      LDR      r0,[pc,#272] ; [0xc1c] = 0x50000040
        0x00000b0c:    6800        .h      LDR      r0,[r0,#0]
        0x00000b0e:    2301        .#      MOVS     r3,#1
        0x00000b10:    4318        .C      ORRS     r0,r0,r3
        0x00000b12:    4b42        BK      LDR      r3,[pc,#264] ; [0xc1c] = 0x50000040
        0x00000b14:    6018        .`      STR      r0,[r3,#0]
        0x00000b16:    e005        ..      B        0xb24 ; DrvGPIO_InitFunction + 1616
        0x00000b18:    4840        @H      LDR      r0,[pc,#256] ; [0xc1c] = 0x50000040
        0x00000b1a:    6800        .h      LDR      r0,[r0,#0]
        0x00000b1c:    2302        .#      MOVS     r3,#2
        0x00000b1e:    4318        .C      ORRS     r0,r0,r3
        0x00000b20:    4b3e        >K      LDR      r3,[pc,#248] ; [0xc1c] = 0x50000040
        0x00000b22:    6018        .`      STR      r0,[r3,#0]
        0x00000b24:    e077        w.      B        0xc16 ; DrvGPIO_InitFunction + 1858
        0x00000b26:    2005        .       MOVS     r0,#5
        0x00000b28:    0700        ..      LSLS     r0,r0,#28
        0x00000b2a:    6b40        @k      LDR      r0,[r0,#0x34]
        0x00000b2c:    230c        .#      MOVS     r3,#0xc
        0x00000b2e:    4318        .C      ORRS     r0,r0,r3
        0x00000b30:    2305        .#      MOVS     r3,#5
        0x00000b32:    071b        ..      LSLS     r3,r3,#28
        0x00000b34:    6358        Xc      STR      r0,[r3,#0x34]
        0x00000b36:    4839        9H      LDR      r0,[pc,#228] ; [0xc1c] = 0x50000040
        0x00000b38:    6900        .i      LDR      r0,[r0,#0x10]
        0x00000b3a:    2303        .#      MOVS     r3,#3
        0x00000b3c:    035b        [.      LSLS     r3,r3,#13
        0x00000b3e:    4318        .C      ORRS     r0,r0,r3
        0x00000b40:    4b36        6K      LDR      r3,[pc,#216] ; [0xc1c] = 0x50000040
        0x00000b42:    6118        .a      STR      r0,[r3,#0x10]
        0x00000b44:    2005        .       MOVS     r0,#5
        0x00000b46:    0700        ..      LSLS     r0,r0,#28
        0x00000b48:    6b00        .k      LDR      r0,[r0,#0x30]
        0x00000b4a:    4b35        5K      LDR      r3,[pc,#212] ; [0xc20] = 0x703e
        0x00000b4c:    4318        .C      ORRS     r0,r0,r3
        0x00000b4e:    2305        .#      MOVS     r3,#5
        0x00000b50:    071b        ..      LSLS     r3,r3,#28
        0x00000b52:    6318        .c      STR      r0,[r3,#0x30]
        0x00000b54:    4831        1H      LDR      r0,[pc,#196] ; [0xc1c] = 0x50000040
        0x00000b56:    6900        .i      LDR      r0,[r0,#0x10]
        0x00000b58:    23ff        .#      MOVS     r3,#0xff
        0x00000b5a:    041b        ..      LSLS     r3,r3,#16
        0x00000b5c:    4318        .C      ORRS     r0,r0,r3
        0x00000b5e:    4b2f        /K      LDR      r3,[pc,#188] ; [0xc1c] = 0x50000040
        0x00000b60:    6118        .a      STR      r0,[r3,#0x10]
        0x00000b62:    bf00        ..      NOP      
        0x00000b64:    293c        <)      CMP      r1,#0x3c
        0x00000b66:    d11e        ..      BNE      0xba6 ; DrvGPIO_InitFunction + 1746
        0x00000b68:    2005        .       MOVS     r0,#5
        0x00000b6a:    0700        ..      LSLS     r0,r0,#28
        0x00000b6c:    6b40        @k      LDR      r0,[r0,#0x34]
        0x00000b6e:    230c        .#      MOVS     r3,#0xc
        0x00000b70:    4398        .C      BICS     r0,r0,r3
        0x00000b72:    2305        .#      MOVS     r3,#5
        0x00000b74:    071b        ..      LSLS     r3,r3,#28
        0x00000b76:    6358        Xc      STR      r0,[r3,#0x34]
        0x00000b78:    4828        (H      LDR      r0,[pc,#160] ; [0xc1c] = 0x50000040
        0x00000b7a:    6900        .i      LDR      r0,[r0,#0x10]
        0x00000b7c:    2303        .#      MOVS     r3,#3
        0x00000b7e:    035b        [.      LSLS     r3,r3,#13
        0x00000b80:    4398        .C      BICS     r0,r0,r3
        0x00000b82:    4b26        &K      LDR      r3,[pc,#152] ; [0xc1c] = 0x50000040
        0x00000b84:    6118        .a      STR      r0,[r3,#0x10]
        0x00000b86:    2005        .       MOVS     r0,#5
        0x00000b88:    0700        ..      LSLS     r0,r0,#28
        0x00000b8a:    6b00        .k      LDR      r0,[r0,#0x30]
        0x00000b8c:    4b24        $K      LDR      r3,[pc,#144] ; [0xc20] = 0x703e
        0x00000b8e:    43db        .C      MVNS     r3,r3
        0x00000b90:    4018        .@      ANDS     r0,r0,r3
        0x00000b92:    2305        .#      MOVS     r3,#5
        0x00000b94:    071b        ..      LSLS     r3,r3,#28
        0x00000b96:    6318        .c      STR      r0,[r3,#0x30]
        0x00000b98:    4820         H      LDR      r0,[pc,#128] ; [0xc1c] = 0x50000040
        0x00000b9a:    6900        .i      LDR      r0,[r0,#0x10]
        0x00000b9c:    23ff        .#      MOVS     r3,#0xff
        0x00000b9e:    041b        ..      LSLS     r3,r3,#16
        0x00000ba0:    4398        .C      BICS     r0,r0,r3
        0x00000ba2:    4b1e        .K      LDR      r3,[pc,#120] ; [0xc1c] = 0x50000040
        0x00000ba4:    6118        .a      STR      r0,[r3,#0x10]
        0x00000ba6:    481d        .H      LDR      r0,[pc,#116] ; [0xc1c] = 0x50000040
        0x00000ba8:    6900        .i      LDR      r0,[r0,#0x10]
        0x00000baa:    2303        .#      MOVS     r3,#3
        0x00000bac:    02db        ..      LSLS     r3,r3,#11
        0x00000bae:    4318        .C      ORRS     r0,r0,r3
        0x00000bb0:    4b1a        .K      LDR      r3,[pc,#104] ; [0xc1c] = 0x50000040
        0x00000bb2:    6118        .a      STR      r0,[r3,#0x10]
        0x00000bb4:    2005        .       MOVS     r0,#5
        0x00000bb6:    0700        ..      LSLS     r0,r0,#28
        0x00000bb8:    6b80        .k      LDR      r0,[r0,#0x38]
        0x00000bba:    23ff        .#      MOVS     r3,#0xff
        0x00000bbc:    3301        .3      ADDS     r3,#1
        0x00000bbe:    4318        .C      ORRS     r0,r0,r3
        0x00000bc0:    2305        .#      MOVS     r3,#5
        0x00000bc2:    071b        ..      LSLS     r3,r3,#28
        0x00000bc4:    6398        .c      STR      r0,[r3,#0x38]
        0x00000bc6:    4618        .F      MOV      r0,r3
        0x00000bc8:    6b00        .k      LDR      r0,[r0,#0x30]
        0x00000bca:    2303        .#      MOVS     r3,#3
        0x00000bcc:    029b        ..      LSLS     r3,r3,#10
        0x00000bce:    4318        .C      ORRS     r0,r0,r3
        0x00000bd0:    2305        .#      MOVS     r3,#5
        0x00000bd2:    071b        ..      LSLS     r3,r3,#28
        0x00000bd4:    6318        .c      STR      r0,[r3,#0x30]
        0x00000bd6:    4618        .F      MOV      r0,r3
        0x00000bd8:    6b40        @k      LDR      r0,[r0,#0x34]
        0x00000bda:    23c0        .#      MOVS     r3,#0xc0
        0x00000bdc:    4318        .C      ORRS     r0,r0,r3
        0x00000bde:    2305        .#      MOVS     r3,#5
        0x00000be0:    071b        ..      LSLS     r3,r3,#28
        0x00000be2:    6358        Xc      STR      r0,[r3,#0x34]
        0x00000be4:    4618        .F      MOV      r0,r3
        0x00000be6:    6b00        .k      LDR      r0,[r0,#0x30]
        0x00000be8:    23c0        .#      MOVS     r3,#0xc0
        0x00000bea:    4318        .C      ORRS     r0,r0,r3
        0x00000bec:    2305        .#      MOVS     r3,#5
        0x00000bee:    071b        ..      LSLS     r3,r3,#28
        0x00000bf0:    6318        .c      STR      r0,[r3,#0x30]
        0x00000bf2:    4618        .F      MOV      r0,r3
        0x00000bf4:    6b80        .k      LDR      r0,[r0,#0x38]
        0x00000bf6:    4b0b        .K      LDR      r3,[pc,#44] ; [0xc24] = 0xc0c0
        0x00000bf8:    4318        .C      ORRS     r0,r0,r3
        0x00000bfa:    2305        .#      MOVS     r3,#5
        0x00000bfc:    071b        ..      LSLS     r3,r3,#28
        0x00000bfe:    6398        .c      STR      r0,[r3,#0x38]
        0x00000c00:    4618        .F      MOV      r0,r3
        0x00000c02:    6b40        @k      LDR      r0,[r0,#0x34]
        0x00000c04:    2303        .#      MOVS     r3,#3
        0x00000c06:    031b        ..      LSLS     r3,r3,#12
        0x00000c08:    4318        .C      ORRS     r0,r0,r3
        0x00000c0a:    2305        .#      MOVS     r3,#5
        0x00000c0c:    071b        ..      LSLS     r3,r3,#28
        0x00000c0e:    6358        Xc      STR      r0,[r3,#0x34]
        0x00000c10:    e001        ..      B        0xc16 ; DrvGPIO_InitFunction + 1858
        0x00000c12:    4805        .H      LDR      r0,[pc,#20] ; [0xc28] = 0xffff8901
        0x00000c14:    bd10        ..      POP      {r4,pc}
        0x00000c16:    bf00        ..      NOP      
        0x00000c18:    2000        .       MOVS     r0,#0
        0x00000c1a:    e7fb        ..      B        0xc14 ; DrvGPIO_InitFunction + 1856
    $d
        0x00000c1c:    50000040    @..P    DCD    1342177344
        0x00000c20:    0000703e    >p..    DCD    28734
        0x00000c24:    0000c0c0    ....    DCD    49344
        0x00000c28:    ffff8901    ....    DCD    4294936833
    $t
    i.DrvGPIO_Open
    DrvGPIO_Open
        0x00000c2c:    b570        p.      PUSH     {r4-r6,lr}
        0x00000c2e:    4604        .F      MOV      r4,r0
        0x00000c30:    460b        .F      MOV      r3,r1
        0x00000c32:    2b00        .+      CMP      r3,#0
        0x00000c34:    db01        ..      BLT      0xc3a ; DrvGPIO_Open + 14
        0x00000c36:    2b10        .+      CMP      r3,#0x10
        0x00000c38:    dd01        ..      BLE      0xc3e ; DrvGPIO_Open + 18
        0x00000c3a:    4818        .H      LDR      r0,[pc,#96] ; [0xc9c] = 0xffff8901
        0x00000c3c:    bd70        p.      POP      {r4-r6,pc}
        0x00000c3e:    01a0        ..      LSLS     r0,r4,#6
        0x00000c40:    4d17        .M      LDR      r5,[pc,#92] ; [0xca0] = 0x50004000
        0x00000c42:    1941        A.      ADDS     r1,r0,r5
        0x00000c44:    2a00        .*      CMP      r2,#0
        0x00000c46:    d003        ..      BEQ      0xc50 ; DrvGPIO_Open + 36
        0x00000c48:    2a01        .*      CMP      r2,#1
        0x00000c4a:    d001        ..      BEQ      0xc50 ; DrvGPIO_Open + 36
        0x00000c4c:    2a02        .*      CMP      r2,#2
        0x00000c4e:    d117        ..      BNE      0xc80 ; DrvGPIO_Open + 84
        0x00000c50:    6808        .h      LDR      r0,[r1,#0]
        0x00000c52:    005e        ^.      LSLS     r6,r3,#1
        0x00000c54:    2503        .%      MOVS     r5,#3
        0x00000c56:    40b5        .@      LSLS     r5,r5,r6
        0x00000c58:    43a8        .C      BICS     r0,r0,r5
        0x00000c5a:    6008        .`      STR      r0,[r1,#0]
        0x00000c5c:    2a01        .*      CMP      r2,#1
        0x00000c5e:    d106        ..      BNE      0xc6e ; DrvGPIO_Open + 66
        0x00000c60:    6808        .h      LDR      r0,[r1,#0]
        0x00000c62:    005e        ^.      LSLS     r6,r3,#1
        0x00000c64:    2501        .%      MOVS     r5,#1
        0x00000c66:    40b5        .@      LSLS     r5,r5,r6
        0x00000c68:    4328        (C      ORRS     r0,r0,r5
        0x00000c6a:    6008        .`      STR      r0,[r1,#0]
        0x00000c6c:    e013        ..      B        0xc96 ; DrvGPIO_Open + 106
        0x00000c6e:    2a02        .*      CMP      r2,#2
        0x00000c70:    d111        ..      BNE      0xc96 ; DrvGPIO_Open + 106
        0x00000c72:    6808        .h      LDR      r0,[r1,#0]
        0x00000c74:    005e        ^.      LSLS     r6,r3,#1
        0x00000c76:    2502        .%      MOVS     r5,#2
        0x00000c78:    40b5        .@      LSLS     r5,r5,r6
        0x00000c7a:    4328        (C      ORRS     r0,r0,r5
        0x00000c7c:    6008        .`      STR      r0,[r1,#0]
        0x00000c7e:    e00a        ..      B        0xc96 ; DrvGPIO_Open + 106
        0x00000c80:    2a03        .*      CMP      r2,#3
        0x00000c82:    d106        ..      BNE      0xc92 ; DrvGPIO_Open + 102
        0x00000c84:    6808        .h      LDR      r0,[r1,#0]
        0x00000c86:    005e        ^.      LSLS     r6,r3,#1
        0x00000c88:    2503        .%      MOVS     r5,#3
        0x00000c8a:    40b5        .@      LSLS     r5,r5,r6
        0x00000c8c:    4328        (C      ORRS     r0,r0,r5
        0x00000c8e:    6008        .`      STR      r0,[r1,#0]
        0x00000c90:    e001        ..      B        0xc96 ; DrvGPIO_Open + 106
        0x00000c92:    4802        .H      LDR      r0,[pc,#8] ; [0xc9c] = 0xffff8901
        0x00000c94:    e7d2        ..      B        0xc3c ; DrvGPIO_Open + 16
        0x00000c96:    2000        .       MOVS     r0,#0
        0x00000c98:    e7d0        ..      B        0xc3c ; DrvGPIO_Open + 16
    $d
        0x00000c9a:    0000        ..      DCW    0
        0x00000c9c:    ffff8901    ....    DCD    4294936833
        0x00000ca0:    50004000    .@.P    DCD    1342193664
    $t
    i.DrvPWM_Enable
    DrvPWM_Enable
        0x00000ca4:    b510        ..      PUSH     {r4,lr}
        0x00000ca6:    0742        B.      LSLS     r2,r0,#29
        0x00000ca8:    0f52        R.      LSRS     r2,r2,#29
        0x00000caa:    0013        ..      MOVS     r3,r2
        0x00000cac:    f003f882    ....    BL       __ARM_common_switch8 ; 0x3db4
    $d
        0x00000cb0:    07060508    ....    DCD    117835016
        0x00000cb4:    1d1c1b08    ....    DCD    488381192
        0x00000cb8:    351e        .5      DCW    13598
    $t
        0x00000cba:    bf00        ..      NOP      
        0x00000cbc:    bf00        ..      NOP      
        0x00000cbe:    bf00        ..      NOP      
        0x00000cc0:    4a8a        .J      LDR      r2,[pc,#552] ; [0xeec] = 0x40040000
        0x00000cc2:    6892        .h      LDR      r2,[r2,#8]
        0x00000cc4:    0743        C.      LSLS     r3,r0,#29
        0x00000cc6:    0e9c        ..      LSRS     r4,r3,#26
        0x00000cc8:    2301        .#      MOVS     r3,#1
        0x00000cca:    40a3        .@      LSLS     r3,r3,r4
        0x00000ccc:    439a        .C      BICS     r2,r2,r3
        0x00000cce:    2900        .)      CMP      r1,#0
        0x00000cd0:    d004        ..      BEQ      0xcdc ; DrvPWM_Enable + 56
        0x00000cd2:    0743        C.      LSLS     r3,r0,#29
        0x00000cd4:    0e9c        ..      LSRS     r4,r3,#26
        0x00000cd6:    2301        .#      MOVS     r3,#1
        0x00000cd8:    40a3        .@      LSLS     r3,r3,r4
        0x00000cda:    e000        ..      B        0xcde ; DrvPWM_Enable + 58
        0x00000cdc:    2300        .#      MOVS     r3,#0
        0x00000cde:    431a        .C      ORRS     r2,r2,r3
        0x00000ce0:    4b82        .K      LDR      r3,[pc,#520] ; [0xeec] = 0x40040000
        0x00000ce2:    609a        .`      STR      r2,[r3,#8]
        0x00000ce4:    e019        ..      B        0xd1a ; DrvPWM_Enable + 118
        0x00000ce6:    bf00        ..      NOP      
        0x00000ce8:    bf00        ..      NOP      
        0x00000cea:    bf00        ..      NOP      
        0x00000cec:    4a80        .J      LDR      r2,[pc,#512] ; [0xef0] = 0x40140000
        0x00000cee:    6892        .h      LDR      r2,[r2,#8]
        0x00000cf0:    0743        C.      LSLS     r3,r0,#29
        0x00000cf2:    0f5b        [.      LSRS     r3,r3,#29
        0x00000cf4:    1f1b        ..      SUBS     r3,r3,#4
        0x00000cf6:    00dc        ..      LSLS     r4,r3,#3
        0x00000cf8:    2301        .#      MOVS     r3,#1
        0x00000cfa:    40a3        .@      LSLS     r3,r3,r4
        0x00000cfc:    439a        .C      BICS     r2,r2,r3
        0x00000cfe:    2900        .)      CMP      r1,#0
        0x00000d00:    d006        ..      BEQ      0xd10 ; DrvPWM_Enable + 108
        0x00000d02:    0743        C.      LSLS     r3,r0,#29
        0x00000d04:    0f5b        [.      LSRS     r3,r3,#29
        0x00000d06:    1f1b        ..      SUBS     r3,r3,#4
        0x00000d08:    00dc        ..      LSLS     r4,r3,#3
        0x00000d0a:    2301        .#      MOVS     r3,#1
        0x00000d0c:    40a3        .@      LSLS     r3,r3,r4
        0x00000d0e:    e000        ..      B        0xd12 ; DrvPWM_Enable + 110
        0x00000d10:    2300        .#      MOVS     r3,#0
        0x00000d12:    431a        .C      ORRS     r2,r2,r3
        0x00000d14:    4b76        vK      LDR      r3,[pc,#472] ; [0xef0] = 0x40140000
        0x00000d16:    609a        .`      STR      r2,[r3,#8]
        0x00000d18:    bf00        ..      NOP      
        0x00000d1a:    bf00        ..      NOP      
        0x00000d1c:    2210        ."      MOVS     r2,#0x10
        0x00000d1e:    4210        .B      TST      r0,r2
        0x00000d20:    d074        t.      BEQ      0xe0c ; DrvPWM_Enable + 360
        0x00000d22:    1a82        ..      SUBS     r2,r0,r2
        0x00000d24:    0013        ..      MOVS     r3,r2
        0x00000d26:    f003f845    ..E.    BL       __ARM_common_switch8 ; 0x3db4
    $d
        0x00000d2a:    0508        ..      DCW    1288
        0x00000d2c:    72553b1f    .;Ur    DCD    1918188319
        0x00000d30:    dec2a88c    ....    DCD    3737299084
    $t
        0x00000d34:    4a6f        oJ      LDR      r2,[pc,#444] ; [0xef4] = 0x20000144
        0x00000d36:    6812        .h      LDR      r2,[r2,#0]
        0x00000d38:    2a00        .*      CMP      r2,#0
        0x00000d3a:    d00a        ..      BEQ      0xd52 ; DrvPWM_Enable + 174
        0x00000d3c:    4a6b        kJ      LDR      r2,[pc,#428] ; [0xeec] = 0x40040000
        0x00000d3e:    3240        @2      ADDS     r2,r2,#0x40
        0x00000d40:    6912        .i      LDR      r2,[r2,#0x10]
        0x00000d42:    4b6d        mK      LDR      r3,[pc,#436] ; [0xef8] = 0xf000f
        0x00000d44:    401a        .@      ANDS     r2,r2,r3
        0x00000d46:    2308        .#      MOVS     r3,#8
        0x00000d48:    431a        .C      ORRS     r2,r2,r3
        0x00000d4a:    4b68        hK      LDR      r3,[pc,#416] ; [0xeec] = 0x40040000
        0x00000d4c:    3340        @3      ADDS     r3,r3,#0x40
        0x00000d4e:    611a        .a      STR      r2,[r3,#0x10]
        0x00000d50:    e009        ..      B        0xd66 ; DrvPWM_Enable + 194
        0x00000d52:    4a66        fJ      LDR      r2,[pc,#408] ; [0xeec] = 0x40040000
        0x00000d54:    3240        @2      ADDS     r2,r2,#0x40
        0x00000d56:    6912        .i      LDR      r2,[r2,#0x10]
        0x00000d58:    4b68        hK      LDR      r3,[pc,#416] ; [0xefc] = 0xffefffef
        0x00000d5a:    401a        .@      ANDS     r2,r2,r3
        0x00000d5c:    2308        .#      MOVS     r3,#8
        0x00000d5e:    431a        .C      ORRS     r2,r2,r3
        0x00000d60:    4b62        bK      LDR      r3,[pc,#392] ; [0xeec] = 0x40040000
        0x00000d62:    3340        @3      ADDS     r3,r3,#0x40
        0x00000d64:    611a        .a      STR      r2,[r3,#0x10]
        0x00000d66:    e0be        ..      B        0xee6 ; DrvPWM_Enable + 578
        0x00000d68:    4a62        bJ      LDR      r2,[pc,#392] ; [0xef4] = 0x20000144
        0x00000d6a:    6812        .h      LDR      r2,[r2,#0]
        0x00000d6c:    2a00        .*      CMP      r2,#0
        0x00000d6e:    d00b        ..      BEQ      0xd88 ; DrvPWM_Enable + 228
        0x00000d70:    4a5e        ^J      LDR      r2,[pc,#376] ; [0xeec] = 0x40040000
        0x00000d72:    3240        @2      ADDS     r2,r2,#0x40
        0x00000d74:    6912        .i      LDR      r2,[r2,#0x10]
        0x00000d76:    4b60        `K      LDR      r3,[pc,#384] ; [0xef8] = 0xf000f
        0x00000d78:    401a        .@      ANDS     r2,r2,r3
        0x00000d7a:    2301        .#      MOVS     r3,#1
        0x00000d7c:    04db        ..      LSLS     r3,r3,#19
        0x00000d7e:    431a        .C      ORRS     r2,r2,r3
        0x00000d80:    4b5a        ZK      LDR      r3,[pc,#360] ; [0xeec] = 0x40040000
        0x00000d82:    3340        @3      ADDS     r3,r3,#0x40
        0x00000d84:    611a        .a      STR      r2,[r3,#0x10]
        0x00000d86:    e00a        ..      B        0xd9e ; DrvPWM_Enable + 250
        0x00000d88:    4a58        XJ      LDR      r2,[pc,#352] ; [0xeec] = 0x40040000
        0x00000d8a:    3240        @2      ADDS     r2,r2,#0x40
        0x00000d8c:    6912        .i      LDR      r2,[r2,#0x10]
        0x00000d8e:    4b5b        [K      LDR      r3,[pc,#364] ; [0xefc] = 0xffefffef
        0x00000d90:    401a        .@      ANDS     r2,r2,r3
        0x00000d92:    2301        .#      MOVS     r3,#1
        0x00000d94:    04db        ..      LSLS     r3,r3,#19
        0x00000d96:    431a        .C      ORRS     r2,r2,r3
        0x00000d98:    4b54        TK      LDR      r3,[pc,#336] ; [0xeec] = 0x40040000
        0x00000d9a:    3340        @3      ADDS     r3,r3,#0x40
        0x00000d9c:    611a        .a      STR      r2,[r3,#0x10]
        0x00000d9e:    e0a2        ..      B        0xee6 ; DrvPWM_Enable + 578
        0x00000da0:    4a54        TJ      LDR      r2,[pc,#336] ; [0xef4] = 0x20000144
        0x00000da2:    6812        .h      LDR      r2,[r2,#0]
        0x00000da4:    2a00        .*      CMP      r2,#0
        0x00000da6:    d00a        ..      BEQ      0xdbe ; DrvPWM_Enable + 282
        0x00000da8:    4a50        PJ      LDR      r2,[pc,#320] ; [0xeec] = 0x40040000
        0x00000daa:    3240        @2      ADDS     r2,r2,#0x40
        0x00000dac:    6952        Ri      LDR      r2,[r2,#0x14]
        0x00000dae:    4b52        RK      LDR      r3,[pc,#328] ; [0xef8] = 0xf000f
        0x00000db0:    401a        .@      ANDS     r2,r2,r3
        0x00000db2:    2308        .#      MOVS     r3,#8
        0x00000db4:    431a        .C      ORRS     r2,r2,r3
        0x00000db6:    4b4d        MK      LDR      r3,[pc,#308] ; [0xeec] = 0x40040000
        0x00000db8:    3340        @3      ADDS     r3,r3,#0x40
        0x00000dba:    615a        Za      STR      r2,[r3,#0x14]
        0x00000dbc:    e009        ..      B        0xdd2 ; DrvPWM_Enable + 302
        0x00000dbe:    4a4b        KJ      LDR      r2,[pc,#300] ; [0xeec] = 0x40040000
        0x00000dc0:    3240        @2      ADDS     r2,r2,#0x40
        0x00000dc2:    6952        Ri      LDR      r2,[r2,#0x14]
        0x00000dc4:    4b4d        MK      LDR      r3,[pc,#308] ; [0xefc] = 0xffefffef
        0x00000dc6:    401a        .@      ANDS     r2,r2,r3
        0x00000dc8:    2308        .#      MOVS     r3,#8
        0x00000dca:    431a        .C      ORRS     r2,r2,r3
        0x00000dcc:    4b47        GK      LDR      r3,[pc,#284] ; [0xeec] = 0x40040000
        0x00000dce:    3340        @3      ADDS     r3,r3,#0x40
        0x00000dd0:    615a        Za      STR      r2,[r3,#0x14]
        0x00000dd2:    e088        ..      B        0xee6 ; DrvPWM_Enable + 578
        0x00000dd4:    4a47        GJ      LDR      r2,[pc,#284] ; [0xef4] = 0x20000144
        0x00000dd6:    6812        .h      LDR      r2,[r2,#0]
        0x00000dd8:    2a00        .*      CMP      r2,#0
        0x00000dda:    d00b        ..      BEQ      0xdf4 ; DrvPWM_Enable + 336
        0x00000ddc:    4a43        CJ      LDR      r2,[pc,#268] ; [0xeec] = 0x40040000
        0x00000dde:    3240        @2      ADDS     r2,r2,#0x40
        0x00000de0:    6952        Ri      LDR      r2,[r2,#0x14]
        0x00000de2:    4b45        EK      LDR      r3,[pc,#276] ; [0xef8] = 0xf000f
        0x00000de4:    401a        .@      ANDS     r2,r2,r3
        0x00000de6:    2301        .#      MOVS     r3,#1
        0x00000de8:    04db        ..      LSLS     r3,r3,#19
        0x00000dea:    431a        .C      ORRS     r2,r2,r3
        0x00000dec:    4b3f        ?K      LDR      r3,[pc,#252] ; [0xeec] = 0x40040000
        0x00000dee:    3340        @3      ADDS     r3,r3,#0x40
        0x00000df0:    615a        Za      STR      r2,[r3,#0x14]
        0x00000df2:    e00a        ..      B        0xe0a ; DrvPWM_Enable + 358
        0x00000df4:    4a3d        =J      LDR      r2,[pc,#244] ; [0xeec] = 0x40040000
        0x00000df6:    3240        @2      ADDS     r2,r2,#0x40
        0x00000df8:    6952        Ri      LDR      r2,[r2,#0x14]
        0x00000dfa:    4b40        @K      LDR      r3,[pc,#256] ; [0xefc] = 0xffefffef
        0x00000dfc:    401a        .@      ANDS     r2,r2,r3
        0x00000dfe:    2301        .#      MOVS     r3,#1
        0x00000e00:    04db        ..      LSLS     r3,r3,#19
        0x00000e02:    431a        .C      ORRS     r2,r2,r3
        0x00000e04:    4b39        9K      LDR      r3,[pc,#228] ; [0xeec] = 0x40040000
        0x00000e06:    3340        @3      ADDS     r3,r3,#0x40
        0x00000e08:    615a        Za      STR      r2,[r3,#0x14]
        0x00000e0a:    e06c        l.      B        0xee6 ; DrvPWM_Enable + 578
        0x00000e0c:    e06c        l.      B        0xee8 ; DrvPWM_Enable + 580
        0x00000e0e:    4a39        9J      LDR      r2,[pc,#228] ; [0xef4] = 0x20000144
        0x00000e10:    6812        .h      LDR      r2,[r2,#0]
        0x00000e12:    2a00        .*      CMP      r2,#0
        0x00000e14:    d00a        ..      BEQ      0xe2c ; DrvPWM_Enable + 392
        0x00000e16:    4a36        6J      LDR      r2,[pc,#216] ; [0xef0] = 0x40140000
        0x00000e18:    3240        @2      ADDS     r2,r2,#0x40
        0x00000e1a:    6912        .i      LDR      r2,[r2,#0x10]
        0x00000e1c:    4b36        6K      LDR      r3,[pc,#216] ; [0xef8] = 0xf000f
        0x00000e1e:    401a        .@      ANDS     r2,r2,r3
        0x00000e20:    2308        .#      MOVS     r3,#8
        0x00000e22:    431a        .C      ORRS     r2,r2,r3
        0x00000e24:    4b32        2K      LDR      r3,[pc,#200] ; [0xef0] = 0x40140000
        0x00000e26:    3340        @3      ADDS     r3,r3,#0x40
        0x00000e28:    611a        .a      STR      r2,[r3,#0x10]
        0x00000e2a:    e009        ..      B        0xe40 ; DrvPWM_Enable + 412
        0x00000e2c:    4a30        0J      LDR      r2,[pc,#192] ; [0xef0] = 0x40140000
        0x00000e2e:    3240        @2      ADDS     r2,r2,#0x40
        0x00000e30:    6912        .i      LDR      r2,[r2,#0x10]
        0x00000e32:    4b32        2K      LDR      r3,[pc,#200] ; [0xefc] = 0xffefffef
        0x00000e34:    401a        .@      ANDS     r2,r2,r3
        0x00000e36:    2308        .#      MOVS     r3,#8
        0x00000e38:    431a        .C      ORRS     r2,r2,r3
        0x00000e3a:    4b2d        -K      LDR      r3,[pc,#180] ; [0xef0] = 0x40140000
        0x00000e3c:    3340        @3      ADDS     r3,r3,#0x40
        0x00000e3e:    611a        .a      STR      r2,[r3,#0x10]
        0x00000e40:    e051        Q.      B        0xee6 ; DrvPWM_Enable + 578
        0x00000e42:    4a2c        ,J      LDR      r2,[pc,#176] ; [0xef4] = 0x20000144
        0x00000e44:    6812        .h      LDR      r2,[r2,#0]
        0x00000e46:    2a00        .*      CMP      r2,#0
        0x00000e48:    d00b        ..      BEQ      0xe62 ; DrvPWM_Enable + 446
        0x00000e4a:    4a29        )J      LDR      r2,[pc,#164] ; [0xef0] = 0x40140000
        0x00000e4c:    3240        @2      ADDS     r2,r2,#0x40
        0x00000e4e:    6912        .i      LDR      r2,[r2,#0x10]
        0x00000e50:    4b29        )K      LDR      r3,[pc,#164] ; [0xef8] = 0xf000f
        0x00000e52:    401a        .@      ANDS     r2,r2,r3
        0x00000e54:    2301        .#      MOVS     r3,#1
        0x00000e56:    04db        ..      LSLS     r3,r3,#19
        0x00000e58:    431a        .C      ORRS     r2,r2,r3
        0x00000e5a:    4b25        %K      LDR      r3,[pc,#148] ; [0xef0] = 0x40140000
        0x00000e5c:    3340        @3      ADDS     r3,r3,#0x40
        0x00000e5e:    611a        .a      STR      r2,[r3,#0x10]
        0x00000e60:    e00a        ..      B        0xe78 ; DrvPWM_Enable + 468
        0x00000e62:    4a23        #J      LDR      r2,[pc,#140] ; [0xef0] = 0x40140000
        0x00000e64:    3240        @2      ADDS     r2,r2,#0x40
        0x00000e66:    6912        .i      LDR      r2,[r2,#0x10]
        0x00000e68:    4b24        $K      LDR      r3,[pc,#144] ; [0xefc] = 0xffefffef
        0x00000e6a:    401a        .@      ANDS     r2,r2,r3
        0x00000e6c:    2301        .#      MOVS     r3,#1
        0x00000e6e:    04db        ..      LSLS     r3,r3,#19
        0x00000e70:    431a        .C      ORRS     r2,r2,r3
        0x00000e72:    4b1f        .K      LDR      r3,[pc,#124] ; [0xef0] = 0x40140000
        0x00000e74:    3340        @3      ADDS     r3,r3,#0x40
        0x00000e76:    611a        .a      STR      r2,[r3,#0x10]
        0x00000e78:    e035        5.      B        0xee6 ; DrvPWM_Enable + 578
        0x00000e7a:    4a1e        .J      LDR      r2,[pc,#120] ; [0xef4] = 0x20000144
        0x00000e7c:    6812        .h      LDR      r2,[r2,#0]
        0x00000e7e:    2a00        .*      CMP      r2,#0
        0x00000e80:    d00a        ..      BEQ      0xe98 ; DrvPWM_Enable + 500
        0x00000e82:    4a1b        .J      LDR      r2,[pc,#108] ; [0xef0] = 0x40140000
        0x00000e84:    3240        @2      ADDS     r2,r2,#0x40
        0x00000e86:    6952        Ri      LDR      r2,[r2,#0x14]
        0x00000e88:    4b1b        .K      LDR      r3,[pc,#108] ; [0xef8] = 0xf000f
        0x00000e8a:    401a        .@      ANDS     r2,r2,r3
        0x00000e8c:    2308        .#      MOVS     r3,#8
        0x00000e8e:    431a        .C      ORRS     r2,r2,r3
        0x00000e90:    4b17        .K      LDR      r3,[pc,#92] ; [0xef0] = 0x40140000
        0x00000e92:    3340        @3      ADDS     r3,r3,#0x40
        0x00000e94:    615a        Za      STR      r2,[r3,#0x14]
        0x00000e96:    e009        ..      B        0xeac ; DrvPWM_Enable + 520
        0x00000e98:    4a15        .J      LDR      r2,[pc,#84] ; [0xef0] = 0x40140000
        0x00000e9a:    3240        @2      ADDS     r2,r2,#0x40
        0x00000e9c:    6952        Ri      LDR      r2,[r2,#0x14]
        0x00000e9e:    4b17        .K      LDR      r3,[pc,#92] ; [0xefc] = 0xffefffef
        0x00000ea0:    401a        .@      ANDS     r2,r2,r3
        0x00000ea2:    2308        .#      MOVS     r3,#8
        0x00000ea4:    431a        .C      ORRS     r2,r2,r3
        0x00000ea6:    4b12        .K      LDR      r3,[pc,#72] ; [0xef0] = 0x40140000
        0x00000ea8:    3340        @3      ADDS     r3,r3,#0x40
        0x00000eaa:    615a        Za      STR      r2,[r3,#0x14]
        0x00000eac:    e01b        ..      B        0xee6 ; DrvPWM_Enable + 578
        0x00000eae:    4a11        .J      LDR      r2,[pc,#68] ; [0xef4] = 0x20000144
        0x00000eb0:    6812        .h      LDR      r2,[r2,#0]
        0x00000eb2:    2a00        .*      CMP      r2,#0
        0x00000eb4:    d00b        ..      BEQ      0xece ; DrvPWM_Enable + 554
        0x00000eb6:    4a0e        .J      LDR      r2,[pc,#56] ; [0xef0] = 0x40140000
        0x00000eb8:    3240        @2      ADDS     r2,r2,#0x40
        0x00000eba:    6952        Ri      LDR      r2,[r2,#0x14]
        0x00000ebc:    4b0e        .K      LDR      r3,[pc,#56] ; [0xef8] = 0xf000f
        0x00000ebe:    401a        .@      ANDS     r2,r2,r3
        0x00000ec0:    2301        .#      MOVS     r3,#1
        0x00000ec2:    04db        ..      LSLS     r3,r3,#19
        0x00000ec4:    431a        .C      ORRS     r2,r2,r3
        0x00000ec6:    4b0a        .K      LDR      r3,[pc,#40] ; [0xef0] = 0x40140000
        0x00000ec8:    3340        @3      ADDS     r3,r3,#0x40
        0x00000eca:    615a        Za      STR      r2,[r3,#0x14]
        0x00000ecc:    e00a        ..      B        0xee4 ; DrvPWM_Enable + 576
        0x00000ece:    4a08        .J      LDR      r2,[pc,#32] ; [0xef0] = 0x40140000
        0x00000ed0:    3240        @2      ADDS     r2,r2,#0x40
        0x00000ed2:    6952        Ri      LDR      r2,[r2,#0x14]
        0x00000ed4:    4b09        .K      LDR      r3,[pc,#36] ; [0xefc] = 0xffefffef
        0x00000ed6:    401a        .@      ANDS     r2,r2,r3
        0x00000ed8:    2301        .#      MOVS     r3,#1
        0x00000eda:    04db        ..      LSLS     r3,r3,#19
        0x00000edc:    431a        .C      ORRS     r2,r2,r3
        0x00000ede:    4b04        .K      LDR      r3,[pc,#16] ; [0xef0] = 0x40140000
        0x00000ee0:    3340        @3      ADDS     r3,r3,#0x40
        0x00000ee2:    615a        Za      STR      r2,[r3,#0x14]
        0x00000ee4:    bf00        ..      NOP      
        0x00000ee6:    bf00        ..      NOP      
        0x00000ee8:    bd10        ..      POP      {r4,pc}
    $d
        0x00000eea:    0000        ..      DCW    0
        0x00000eec:    40040000    ...@    DCD    1074003968
        0x00000ef0:    40140000    ...@    DCD    1075052544
        0x00000ef4:    20000144    D..     DCD    536871236
        0x00000ef8:    000f000f    ....    DCD    983055
        0x00000efc:    ffefffef    ....    DCD    4293918703
    $t
    i.DrvPWM_Open
    DrvPWM_Open
        0x00000f00:    480c        .H      LDR      r0,[pc,#48] ; [0xf34] = 0x50000200
        0x00000f02:    6880        .h      LDR      r0,[r0,#8]
        0x00000f04:    210f        .!      MOVS     r1,#0xf
        0x00000f06:    0509        ..      LSLS     r1,r1,#20
        0x00000f08:    4308        .C      ORRS     r0,r0,r1
        0x00000f0a:    490a        .I      LDR      r1,[pc,#40] ; [0xf34] = 0x50000200
        0x00000f0c:    6088        .`      STR      r0,[r1,#8]
        0x00000f0e:    2005        .       MOVS     r0,#5
        0x00000f10:    0700        ..      LSLS     r0,r0,#28
        0x00000f12:    68c0        .h      LDR      r0,[r0,#0xc]
        0x00000f14:    2103        .!      MOVS     r1,#3
        0x00000f16:    0509        ..      LSLS     r1,r1,#20
        0x00000f18:    4308        .C      ORRS     r0,r0,r1
        0x00000f1a:    2105        .!      MOVS     r1,#5
        0x00000f1c:    0709        ..      LSLS     r1,r1,#28
        0x00000f1e:    60c8        .`      STR      r0,[r1,#0xc]
        0x00000f20:    4608        .F      MOV      r0,r1
        0x00000f22:    68c0        .h      LDR      r0,[r0,#0xc]
        0x00000f24:    2103        .!      MOVS     r1,#3
        0x00000f26:    0509        ..      LSLS     r1,r1,#20
        0x00000f28:    4388        .C      BICS     r0,r0,r1
        0x00000f2a:    2105        .!      MOVS     r1,#5
        0x00000f2c:    0709        ..      LSLS     r1,r1,#28
        0x00000f2e:    60c8        .`      STR      r0,[r1,#0xc]
        0x00000f30:    4770        pG      BX       lr
    $d
        0x00000f32:    0000        ..      DCW    0
        0x00000f34:    50000200    ...P    DCD    1342177792
    $t
    i.DrvPWM_SetTimerClk
    DrvPWM_SetTimerClk
        0x00000f38:    b5f0        ..      PUSH     {r4-r7,lr}
        0x00000f3a:    b089        ..      SUB      sp,sp,#0x24
        0x00000f3c:    4605        .F      MOV      r5,r0
        0x00000f3e:    460c        .F      MOV      r4,r1
        0x00000f40:    2000        .       MOVS     r0,#0
        0x00000f42:    9003        ..      STR      r0,[sp,#0xc]
        0x00000f44:    0768        h.      LSLS     r0,r5,#29
        0x00000f46:    0f40        @.      LSRS     r0,r0,#29
        0x00000f48:    0003        ..      MOVS     r3,r0
        0x00000f4a:    f002ff33    ..3.    BL       __ARM_common_switch8 ; 0x3db4
    $d
        0x00000f4e:    0508        ..      DCW    1288
        0x00000f50:    120d0c06    ....    DCD    302844934
        0x00000f54:    201a1913    ...     DCD    538581267
    $t
        0x00000f58:    bf00        ..      NOP      
        0x00000f5a:    48fc        .H      LDR      r0,[pc,#1008] ; [0x134c] = 0x50000200
        0x00000f5c:    6940        @i      LDR      r0,[r0,#0x14]
        0x00000f5e:    0080        ..      LSLS     r0,r0,#2
        0x00000f60:    0f80        ..      LSRS     r0,r0,#30
        0x00000f62:    9003        ..      STR      r0,[sp,#0xc]
        0x00000f64:    e013        ..      B        0xf8e ; DrvPWM_SetTimerClk + 86
        0x00000f66:    bf00        ..      NOP      
        0x00000f68:    48f8        .H      LDR      r0,[pc,#992] ; [0x134c] = 0x50000200
        0x00000f6a:    6940        @i      LDR      r0,[r0,#0x14]
        0x00000f6c:    0f80        ..      LSRS     r0,r0,#30
        0x00000f6e:    9003        ..      STR      r0,[sp,#0xc]
        0x00000f70:    e00d        ..      B        0xf8e ; DrvPWM_SetTimerClk + 86
        0x00000f72:    bf00        ..      NOP      
        0x00000f74:    48f5        .H      LDR      r0,[pc,#980] ; [0x134c] = 0x50000200
        0x00000f76:    69c0        .i      LDR      r0,[r0,#0x1c]
        0x00000f78:    0680        ..      LSLS     r0,r0,#26
        0x00000f7a:    0f80        ..      LSRS     r0,r0,#30
        0x00000f7c:    9003        ..      STR      r0,[sp,#0xc]
        0x00000f7e:    e006        ..      B        0xf8e ; DrvPWM_SetTimerClk + 86
        0x00000f80:    bf00        ..      NOP      
        0x00000f82:    48f2        .H      LDR      r0,[pc,#968] ; [0x134c] = 0x50000200
        0x00000f84:    69c0        .i      LDR      r0,[r0,#0x1c]
        0x00000f86:    0600        ..      LSLS     r0,r0,#24
        0x00000f88:    0f80        ..      LSRS     r0,r0,#30
        0x00000f8a:    9003        ..      STR      r0,[sp,#0xc]
        0x00000f8c:    bf00        ..      NOP      
        0x00000f8e:    bf00        ..      NOP      
        0x00000f90:    9803        ..      LDR      r0,[sp,#0xc]
        0x00000f92:    2800        .(      CMP      r0,#0
        0x00000f94:    d102        ..      BNE      0xf9c ; DrvPWM_SetTimerClk + 100
        0x00000f96:    48ee        .H      LDR      r0,[pc,#952] ; [0x1350] = 0xb71b00
        0x00000f98:    9007        ..      STR      r0,[sp,#0x1c]
        0x00000f9a:    e00e        ..      B        0xfba ; DrvPWM_SetTimerClk + 130
        0x00000f9c:    9803        ..      LDR      r0,[sp,#0xc]
        0x00000f9e:    2801        .(      CMP      r0,#1
        0x00000fa0:    d102        ..      BNE      0xfa8 ; DrvPWM_SetTimerClk + 112
        0x00000fa2:    03c0        ..      LSLS     r0,r0,#15
        0x00000fa4:    9007        ..      STR      r0,[sp,#0x1c]
        0x00000fa6:    e008        ..      B        0xfba ; DrvPWM_SetTimerClk + 130
        0x00000fa8:    9803        ..      LDR      r0,[sp,#0xc]
        0x00000faa:    2802        .(      CMP      r0,#2
        0x00000fac:    d103        ..      BNE      0xfb6 ; DrvPWM_SetTimerClk + 126
        0x00000fae:    48e9        .H      LDR      r0,[pc,#932] ; [0x1354] = 0x20000000
        0x00000fb0:    6800        .h      LDR      r0,[r0,#0]
        0x00000fb2:    9007        ..      STR      r0,[sp,#0x1c]
        0x00000fb4:    e001        ..      B        0xfba ; DrvPWM_SetTimerClk + 130
        0x00000fb6:    48e8        .H      LDR      r0,[pc,#928] ; [0x1358] = 0x1518000
        0x00000fb8:    9007        ..      STR      r0,[sp,#0x1c]
        0x00000fba:    002b        +.      MOVS     r3,r5
        0x00000fbc:    f002fefa    ....    BL       __ARM_common_switch8 ; 0x3db4
    $d
        0x00000fc0:    0f0e0d18    ....    DCD    252579096
        0x00000fc4:    26252410    .$%&    DCD    639968272
        0x00000fc8:    23232327    '###    DCD    589505319
        0x00000fcc:    23232323    ####    DCD    589505315
        0x00000fd0:    87613d23    #=a.    DCD    2271296803
        0x00000fd4:    f0f8d1ab    ....    DCD    4042838443
        0x00000fd8:    23ef        .#      DCW    9199
    $t
        0x00000fda:    bf00        ..      NOP      
        0x00000fdc:    bf00        ..      NOP      
        0x00000fde:    bf00        ..      NOP      
        0x00000fe0:    48de        .H      LDR      r0,[pc,#888] ; [0x135c] = 0x40040000
        0x00000fe2:    6880        .h      LDR      r0,[r0,#8]
        0x00000fe4:    00ea        ..      LSLS     r2,r5,#3
        0x00000fe6:    1c92        ..      ADDS     r2,r2,#2
        0x00000fe8:    2101        .!      MOVS     r1,#1
        0x00000fea:    4091        .@      LSLS     r1,r1,r2
        0x00000fec:    4388        .C      BICS     r0,r0,r1
        0x00000fee:    68e1        .h      LDR      r1,[r4,#0xc]
        0x00000ff0:    2900        .)      CMP      r1,#0
        0x00000ff2:    d004        ..      BEQ      0xffe ; DrvPWM_SetTimerClk + 198
        0x00000ff4:    00ea        ..      LSLS     r2,r5,#3
        0x00000ff6:    1c92        ..      ADDS     r2,r2,#2
        0x00000ff8:    2101        .!      MOVS     r1,#1
        0x00000ffa:    4091        .@      LSLS     r1,r1,r2
        0x00000ffc:    e000        ..      B        0x1000 ; DrvPWM_SetTimerClk + 200
        0x00000ffe:    2100        .!      MOVS     r1,#0
        0x00001000:    4308        .C      ORRS     r0,r0,r1
        0x00001002:    49d6        .I      LDR      r1,[pc,#856] ; [0x135c] = 0x40040000
        0x00001004:    6088        .`      STR      r0,[r1,#8]
        0x00001006:    e143        C.      B        0x1290 ; DrvPWM_SetTimerClk + 856
        0x00001008:    bf00        ..      NOP      
        0x0000100a:    bf00        ..      NOP      
        0x0000100c:    bf00        ..      NOP      
        0x0000100e:    48d4        .H      LDR      r0,[pc,#848] ; [0x1360] = 0x40140000
        0x00001010:    6880        .h      LDR      r0,[r0,#8]
        0x00001012:    1f29        ).      SUBS     r1,r5,#4
        0x00001014:    00ca        ..      LSLS     r2,r1,#3
        0x00001016:    1c92        ..      ADDS     r2,r2,#2
        0x00001018:    2101        .!      MOVS     r1,#1
        0x0000101a:    4091        .@      LSLS     r1,r1,r2
        0x0000101c:    4388        .C      BICS     r0,r0,r1
        0x0000101e:    68e1        .h      LDR      r1,[r4,#0xc]
        0x00001020:    2900        .)      CMP      r1,#0
        0x00001022:    d005        ..      BEQ      0x1030 ; DrvPWM_SetTimerClk + 248
        0x00001024:    1f29        ).      SUBS     r1,r5,#4
        0x00001026:    00ca        ..      LSLS     r2,r1,#3
        0x00001028:    1c92        ..      ADDS     r2,r2,#2
        0x0000102a:    2101        .!      MOVS     r1,#1
        0x0000102c:    4091        .@      LSLS     r1,r1,r2
        0x0000102e:    e000        ..      B        0x1032 ; DrvPWM_SetTimerClk + 250
        0x00001030:    2100        .!      MOVS     r1,#0
        0x00001032:    4308        .C      ORRS     r0,r0,r1
        0x00001034:    49ca        .I      LDR      r1,[pc,#808] ; [0x1360] = 0x40140000
        0x00001036:    6088        .`      STR      r0,[r1,#8]
        0x00001038:    e12a        *.      B        0x1290 ; DrvPWM_SetTimerClk + 856
        0x0000103a:    48ca        .H      LDR      r0,[pc,#808] ; [0x1364] = 0x20000144
        0x0000103c:    6800        .h      LDR      r0,[r0,#0]
        0x0000103e:    2800        .(      CMP      r0,#0
        0x00001040:    d00f        ..      BEQ      0x1062 ; DrvPWM_SetTimerClk + 298
        0x00001042:    48c6        .H      LDR      r0,[pc,#792] ; [0x135c] = 0x40040000
        0x00001044:    3040        @0      ADDS     r0,r0,#0x40
        0x00001046:    6900        .i      LDR      r0,[r0,#0x10]
        0x00001048:    49c7        .I      LDR      r1,[pc,#796] ; [0x1368] = 0xf000f
        0x0000104a:    4008        .@      ANDS     r0,r0,r1
        0x0000104c:    68e1        .h      LDR      r1,[r4,#0xc]
        0x0000104e:    2900        .)      CMP      r1,#0
        0x00001050:    d001        ..      BEQ      0x1056 ; DrvPWM_SetTimerClk + 286
        0x00001052:    2101        .!      MOVS     r1,#1
        0x00001054:    e000        ..      B        0x1058 ; DrvPWM_SetTimerClk + 288
        0x00001056:    2100        .!      MOVS     r1,#0
        0x00001058:    4308        .C      ORRS     r0,r0,r1
        0x0000105a:    49c0        .I      LDR      r1,[pc,#768] ; [0x135c] = 0x40040000
        0x0000105c:    3140        @1      ADDS     r1,r1,#0x40
        0x0000105e:    6108        .a      STR      r0,[r1,#0x10]
        0x00001060:    e00e        ..      B        0x1080 ; DrvPWM_SetTimerClk + 328
        0x00001062:    48be        .H      LDR      r0,[pc,#760] ; [0x135c] = 0x40040000
        0x00001064:    3040        @0      ADDS     r0,r0,#0x40
        0x00001066:    6900        .i      LDR      r0,[r0,#0x10]
        0x00001068:    49c0        .I      LDR      r1,[pc,#768] ; [0x136c] = 0xffefffef
        0x0000106a:    4008        .@      ANDS     r0,r0,r1
        0x0000106c:    68e1        .h      LDR      r1,[r4,#0xc]
        0x0000106e:    2900        .)      CMP      r1,#0
        0x00001070:    d001        ..      BEQ      0x1076 ; DrvPWM_SetTimerClk + 318
        0x00001072:    2101        .!      MOVS     r1,#1
        0x00001074:    e000        ..      B        0x1078 ; DrvPWM_SetTimerClk + 320
        0x00001076:    2100        .!      MOVS     r1,#0
        0x00001078:    4308        .C      ORRS     r0,r0,r1
        0x0000107a:    49b8        .I      LDR      r1,[pc,#736] ; [0x135c] = 0x40040000
        0x0000107c:    3140        @1      ADDS     r1,r1,#0x40
        0x0000107e:    6108        .a      STR      r0,[r1,#0x10]
        0x00001080:    e106        ..      B        0x1290 ; DrvPWM_SetTimerClk + 856
        0x00001082:    48b8        .H      LDR      r0,[pc,#736] ; [0x1364] = 0x20000144
        0x00001084:    6800        .h      LDR      r0,[r0,#0]
        0x00001086:    2800        .(      CMP      r0,#0
        0x00001088:    d010        ..      BEQ      0x10ac ; DrvPWM_SetTimerClk + 372
        0x0000108a:    48b4        .H      LDR      r0,[pc,#720] ; [0x135c] = 0x40040000
        0x0000108c:    3040        @0      ADDS     r0,r0,#0x40
        0x0000108e:    6900        .i      LDR      r0,[r0,#0x10]
        0x00001090:    49b5        .I      LDR      r1,[pc,#724] ; [0x1368] = 0xf000f
        0x00001092:    4008        .@      ANDS     r0,r0,r1
        0x00001094:    68e1        .h      LDR      r1,[r4,#0xc]
        0x00001096:    2900        .)      CMP      r1,#0
        0x00001098:    d002        ..      BEQ      0x10a0 ; DrvPWM_SetTimerClk + 360
        0x0000109a:    2101        .!      MOVS     r1,#1
        0x0000109c:    0409        ..      LSLS     r1,r1,#16
        0x0000109e:    e000        ..      B        0x10a2 ; DrvPWM_SetTimerClk + 362
        0x000010a0:    2100        .!      MOVS     r1,#0
        0x000010a2:    4308        .C      ORRS     r0,r0,r1
        0x000010a4:    49ad        .I      LDR      r1,[pc,#692] ; [0x135c] = 0x40040000
        0x000010a6:    3140        @1      ADDS     r1,r1,#0x40
        0x000010a8:    6108        .a      STR      r0,[r1,#0x10]
        0x000010aa:    e00f        ..      B        0x10cc ; DrvPWM_SetTimerClk + 404
        0x000010ac:    48ab        .H      LDR      r0,[pc,#684] ; [0x135c] = 0x40040000
        0x000010ae:    3040        @0      ADDS     r0,r0,#0x40
        0x000010b0:    6900        .i      LDR      r0,[r0,#0x10]
        0x000010b2:    49ae        .I      LDR      r1,[pc,#696] ; [0x136c] = 0xffefffef
        0x000010b4:    4008        .@      ANDS     r0,r0,r1
        0x000010b6:    68e1        .h      LDR      r1,[r4,#0xc]
        0x000010b8:    2900        .)      CMP      r1,#0
        0x000010ba:    d002        ..      BEQ      0x10c2 ; DrvPWM_SetTimerClk + 394
        0x000010bc:    2101        .!      MOVS     r1,#1
        0x000010be:    0409        ..      LSLS     r1,r1,#16
        0x000010c0:    e000        ..      B        0x10c4 ; DrvPWM_SetTimerClk + 396
        0x000010c2:    2100        .!      MOVS     r1,#0
        0x000010c4:    4308        .C      ORRS     r0,r0,r1
        0x000010c6:    49a5        .I      LDR      r1,[pc,#660] ; [0x135c] = 0x40040000
        0x000010c8:    3140        @1      ADDS     r1,r1,#0x40
        0x000010ca:    6108        .a      STR      r0,[r1,#0x10]
        0x000010cc:    e0e0        ..      B        0x1290 ; DrvPWM_SetTimerClk + 856
        0x000010ce:    48a5        .H      LDR      r0,[pc,#660] ; [0x1364] = 0x20000144
        0x000010d0:    6800        .h      LDR      r0,[r0,#0]
        0x000010d2:    2800        .(      CMP      r0,#0
        0x000010d4:    d00f        ..      BEQ      0x10f6 ; DrvPWM_SetTimerClk + 446
        0x000010d6:    48a1        .H      LDR      r0,[pc,#644] ; [0x135c] = 0x40040000
        0x000010d8:    3040        @0      ADDS     r0,r0,#0x40
        0x000010da:    6940        @i      LDR      r0,[r0,#0x14]
        0x000010dc:    49a2        .I      LDR      r1,[pc,#648] ; [0x1368] = 0xf000f
        0x000010de:    4008        .@      ANDS     r0,r0,r1
        0x000010e0:    68e1        .h      LDR      r1,[r4,#0xc]
        0x000010e2:    2900        .)      CMP      r1,#0
        0x000010e4:    d001        ..      BEQ      0x10ea ; DrvPWM_SetTimerClk + 434
        0x000010e6:    2101        .!      MOVS     r1,#1
        0x000010e8:    e000        ..      B        0x10ec ; DrvPWM_SetTimerClk + 436
        0x000010ea:    2100        .!      MOVS     r1,#0
        0x000010ec:    4308        .C      ORRS     r0,r0,r1
        0x000010ee:    499b        .I      LDR      r1,[pc,#620] ; [0x135c] = 0x40040000
        0x000010f0:    3140        @1      ADDS     r1,r1,#0x40
        0x000010f2:    6148        Ha      STR      r0,[r1,#0x14]
        0x000010f4:    e00e        ..      B        0x1114 ; DrvPWM_SetTimerClk + 476
        0x000010f6:    4899        .H      LDR      r0,[pc,#612] ; [0x135c] = 0x40040000
        0x000010f8:    3040        @0      ADDS     r0,r0,#0x40
        0x000010fa:    6940        @i      LDR      r0,[r0,#0x14]
        0x000010fc:    499b        .I      LDR      r1,[pc,#620] ; [0x136c] = 0xffefffef
        0x000010fe:    4008        .@      ANDS     r0,r0,r1
        0x00001100:    68e1        .h      LDR      r1,[r4,#0xc]
        0x00001102:    2900        .)      CMP      r1,#0
        0x00001104:    d001        ..      BEQ      0x110a ; DrvPWM_SetTimerClk + 466
        0x00001106:    2101        .!      MOVS     r1,#1
        0x00001108:    e000        ..      B        0x110c ; DrvPWM_SetTimerClk + 468
        0x0000110a:    2100        .!      MOVS     r1,#0
        0x0000110c:    4308        .C      ORRS     r0,r0,r1
        0x0000110e:    4993        .I      LDR      r1,[pc,#588] ; [0x135c] = 0x40040000
        0x00001110:    3140        @1      ADDS     r1,r1,#0x40
        0x00001112:    6148        Ha      STR      r0,[r1,#0x14]
        0x00001114:    e0bc        ..      B        0x1290 ; DrvPWM_SetTimerClk + 856
        0x00001116:    4893        .H      LDR      r0,[pc,#588] ; [0x1364] = 0x20000144
        0x00001118:    6800        .h      LDR      r0,[r0,#0]
        0x0000111a:    2800        .(      CMP      r0,#0
        0x0000111c:    d010        ..      BEQ      0x1140 ; DrvPWM_SetTimerClk + 520
        0x0000111e:    488f        .H      LDR      r0,[pc,#572] ; [0x135c] = 0x40040000
        0x00001120:    3040        @0      ADDS     r0,r0,#0x40
        0x00001122:    6940        @i      LDR      r0,[r0,#0x14]
        0x00001124:    4990        .I      LDR      r1,[pc,#576] ; [0x1368] = 0xf000f
        0x00001126:    4008        .@      ANDS     r0,r0,r1
        0x00001128:    68e1        .h      LDR      r1,[r4,#0xc]
        0x0000112a:    2900        .)      CMP      r1,#0
        0x0000112c:    d002        ..      BEQ      0x1134 ; DrvPWM_SetTimerClk + 508
        0x0000112e:    2101        .!      MOVS     r1,#1
        0x00001130:    0409        ..      LSLS     r1,r1,#16
        0x00001132:    e000        ..      B        0x1136 ; DrvPWM_SetTimerClk + 510
        0x00001134:    2100        .!      MOVS     r1,#0
        0x00001136:    4308        .C      ORRS     r0,r0,r1
        0x00001138:    4988        .I      LDR      r1,[pc,#544] ; [0x135c] = 0x40040000
        0x0000113a:    3140        @1      ADDS     r1,r1,#0x40
        0x0000113c:    6148        Ha      STR      r0,[r1,#0x14]
        0x0000113e:    e00f        ..      B        0x1160 ; DrvPWM_SetTimerClk + 552
        0x00001140:    4886        .H      LDR      r0,[pc,#536] ; [0x135c] = 0x40040000
        0x00001142:    3040        @0      ADDS     r0,r0,#0x40
        0x00001144:    6940        @i      LDR      r0,[r0,#0x14]
        0x00001146:    4989        .I      LDR      r1,[pc,#548] ; [0x136c] = 0xffefffef
        0x00001148:    4008        .@      ANDS     r0,r0,r1
        0x0000114a:    68e1        .h      LDR      r1,[r4,#0xc]
        0x0000114c:    2900        .)      CMP      r1,#0
        0x0000114e:    d002        ..      BEQ      0x1156 ; DrvPWM_SetTimerClk + 542
        0x00001150:    2101        .!      MOVS     r1,#1
        0x00001152:    0409        ..      LSLS     r1,r1,#16
        0x00001154:    e000        ..      B        0x1158 ; DrvPWM_SetTimerClk + 544
        0x00001156:    2100        .!      MOVS     r1,#0
        0x00001158:    4308        .C      ORRS     r0,r0,r1
        0x0000115a:    4980        .I      LDR      r1,[pc,#512] ; [0x135c] = 0x40040000
        0x0000115c:    3140        @1      ADDS     r1,r1,#0x40
        0x0000115e:    6148        Ha      STR      r0,[r1,#0x14]
        0x00001160:    e096        ..      B        0x1290 ; DrvPWM_SetTimerClk + 856
        0x00001162:    4880        .H      LDR      r0,[pc,#512] ; [0x1364] = 0x20000144
        0x00001164:    6800        .h      LDR      r0,[r0,#0]
        0x00001166:    2800        .(      CMP      r0,#0
        0x00001168:    d00f        ..      BEQ      0x118a ; DrvPWM_SetTimerClk + 594
        0x0000116a:    487d        }H      LDR      r0,[pc,#500] ; [0x1360] = 0x40140000
        0x0000116c:    3040        @0      ADDS     r0,r0,#0x40
        0x0000116e:    6900        .i      LDR      r0,[r0,#0x10]
        0x00001170:    497d        }I      LDR      r1,[pc,#500] ; [0x1368] = 0xf000f
        0x00001172:    4008        .@      ANDS     r0,r0,r1
        0x00001174:    68e1        .h      LDR      r1,[r4,#0xc]
        0x00001176:    2900        .)      CMP      r1,#0
        0x00001178:    d001        ..      BEQ      0x117e ; DrvPWM_SetTimerClk + 582
        0x0000117a:    2101        .!      MOVS     r1,#1
        0x0000117c:    e000        ..      B        0x1180 ; DrvPWM_SetTimerClk + 584
        0x0000117e:    2100        .!      MOVS     r1,#0
        0x00001180:    4308        .C      ORRS     r0,r0,r1
        0x00001182:    4977        wI      LDR      r1,[pc,#476] ; [0x1360] = 0x40140000
        0x00001184:    3140        @1      ADDS     r1,r1,#0x40
        0x00001186:    6108        .a      STR      r0,[r1,#0x10]
        0x00001188:    e011        ..      B        0x11ae ; DrvPWM_SetTimerClk + 630
        0x0000118a:    4875        uH      LDR      r0,[pc,#468] ; [0x1360] = 0x40140000
        0x0000118c:    3040        @0      ADDS     r0,r0,#0x40
        0x0000118e:    6900        .i      LDR      r0,[r0,#0x10]
        0x00001190:    4976        vI      LDR      r1,[pc,#472] ; [0x136c] = 0xffefffef
        0x00001192:    4008        .@      ANDS     r0,r0,r1
        0x00001194:    68e1        .h      LDR      r1,[r4,#0xc]
        0x00001196:    2900        .)      CMP      r1,#0
        0x00001198:    d004        ..      BEQ      0x11a4 ; DrvPWM_SetTimerClk + 620
        0x0000119a:    2101        .!      MOVS     r1,#1
        0x0000119c:    e003        ..      B        0x11a6 ; DrvPWM_SetTimerClk + 622
        0x0000119e:    e051        Q.      B        0x1244 ; DrvPWM_SetTimerClk + 780
        0x000011a0:    e02c        ,.      B        0x11fc ; DrvPWM_SetTimerClk + 708
        0x000011a2:    e005        ..      B        0x11b0 ; DrvPWM_SetTimerClk + 632
        0x000011a4:    2100        .!      MOVS     r1,#0
        0x000011a6:    4308        .C      ORRS     r0,r0,r1
        0x000011a8:    496d        mI      LDR      r1,[pc,#436] ; [0x1360] = 0x40140000
        0x000011aa:    3140        @1      ADDS     r1,r1,#0x40
        0x000011ac:    6108        .a      STR      r0,[r1,#0x10]
        0x000011ae:    e06f        o.      B        0x1290 ; DrvPWM_SetTimerClk + 856
        0x000011b0:    486c        lH      LDR      r0,[pc,#432] ; [0x1364] = 0x20000144
        0x000011b2:    6800        .h      LDR      r0,[r0,#0]
        0x000011b4:    2800        .(      CMP      r0,#0
        0x000011b6:    d010        ..      BEQ      0x11da ; DrvPWM_SetTimerClk + 674
        0x000011b8:    4869        iH      LDR      r0,[pc,#420] ; [0x1360] = 0x40140000
        0x000011ba:    3040        @0      ADDS     r0,r0,#0x40
        0x000011bc:    6900        .i      LDR      r0,[r0,#0x10]
        0x000011be:    496a        jI      LDR      r1,[pc,#424] ; [0x1368] = 0xf000f
        0x000011c0:    4008        .@      ANDS     r0,r0,r1
        0x000011c2:    68e1        .h      LDR      r1,[r4,#0xc]
        0x000011c4:    2900        .)      CMP      r1,#0
        0x000011c6:    d002        ..      BEQ      0x11ce ; DrvPWM_SetTimerClk + 662
        0x000011c8:    2101        .!      MOVS     r1,#1
        0x000011ca:    0409        ..      LSLS     r1,r1,#16
        0x000011cc:    e000        ..      B        0x11d0 ; DrvPWM_SetTimerClk + 664
        0x000011ce:    2100        .!      MOVS     r1,#0
        0x000011d0:    4308        .C      ORRS     r0,r0,r1
        0x000011d2:    4963        cI      LDR      r1,[pc,#396] ; [0x1360] = 0x40140000
        0x000011d4:    3140        @1      ADDS     r1,r1,#0x40
        0x000011d6:    6108        .a      STR      r0,[r1,#0x10]
        0x000011d8:    e00f        ..      B        0x11fa ; DrvPWM_SetTimerClk + 706
        0x000011da:    4861        aH      LDR      r0,[pc,#388] ; [0x1360] = 0x40140000
        0x000011dc:    3040        @0      ADDS     r0,r0,#0x40
        0x000011de:    6900        .i      LDR      r0,[r0,#0x10]
        0x000011e0:    4962        bI      LDR      r1,[pc,#392] ; [0x136c] = 0xffefffef
        0x000011e2:    4008        .@      ANDS     r0,r0,r1
        0x000011e4:    68e1        .h      LDR      r1,[r4,#0xc]
        0x000011e6:    2900        .)      CMP      r1,#0
        0x000011e8:    d002        ..      BEQ      0x11f0 ; DrvPWM_SetTimerClk + 696
        0x000011ea:    2101        .!      MOVS     r1,#1
        0x000011ec:    0409        ..      LSLS     r1,r1,#16
        0x000011ee:    e000        ..      B        0x11f2 ; DrvPWM_SetTimerClk + 698
        0x000011f0:    2100        .!      MOVS     r1,#0
        0x000011f2:    4308        .C      ORRS     r0,r0,r1
        0x000011f4:    495a        ZI      LDR      r1,[pc,#360] ; [0x1360] = 0x40140000
        0x000011f6:    3140        @1      ADDS     r1,r1,#0x40
        0x000011f8:    6108        .a      STR      r0,[r1,#0x10]
        0x000011fa:    e049        I.      B        0x1290 ; DrvPWM_SetTimerClk + 856
        0x000011fc:    4859        YH      LDR      r0,[pc,#356] ; [0x1364] = 0x20000144
        0x000011fe:    6800        .h      LDR      r0,[r0,#0]
        0x00001200:    2800        .(      CMP      r0,#0
        0x00001202:    d00f        ..      BEQ      0x1224 ; DrvPWM_SetTimerClk + 748
        0x00001204:    4856        VH      LDR      r0,[pc,#344] ; [0x1360] = 0x40140000
        0x00001206:    3040        @0      ADDS     r0,r0,#0x40
        0x00001208:    6940        @i      LDR      r0,[r0,#0x14]
        0x0000120a:    4957        WI      LDR      r1,[pc,#348] ; [0x1368] = 0xf000f
        0x0000120c:    4008        .@      ANDS     r0,r0,r1
        0x0000120e:    68e1        .h      LDR      r1,[r4,#0xc]
        0x00001210:    2900        .)      CMP      r1,#0
        0x00001212:    d001        ..      BEQ      0x1218 ; DrvPWM_SetTimerClk + 736
        0x00001214:    2101        .!      MOVS     r1,#1
        0x00001216:    e000        ..      B        0x121a ; DrvPWM_SetTimerClk + 738
        0x00001218:    2100        .!      MOVS     r1,#0
        0x0000121a:    4308        .C      ORRS     r0,r0,r1
        0x0000121c:    4950        PI      LDR      r1,[pc,#320] ; [0x1360] = 0x40140000
        0x0000121e:    3140        @1      ADDS     r1,r1,#0x40
        0x00001220:    6148        Ha      STR      r0,[r1,#0x14]
        0x00001222:    e00e        ..      B        0x1242 ; DrvPWM_SetTimerClk + 778
        0x00001224:    484e        NH      LDR      r0,[pc,#312] ; [0x1360] = 0x40140000
        0x00001226:    3040        @0      ADDS     r0,r0,#0x40
        0x00001228:    6940        @i      LDR      r0,[r0,#0x14]
        0x0000122a:    4950        PI      LDR      r1,[pc,#320] ; [0x136c] = 0xffefffef
        0x0000122c:    4008        .@      ANDS     r0,r0,r1
        0x0000122e:    68e1        .h      LDR      r1,[r4,#0xc]
        0x00001230:    2900        .)      CMP      r1,#0
        0x00001232:    d001        ..      BEQ      0x1238 ; DrvPWM_SetTimerClk + 768
        0x00001234:    2101        .!      MOVS     r1,#1
        0x00001236:    e000        ..      B        0x123a ; DrvPWM_SetTimerClk + 770
        0x00001238:    2100        .!      MOVS     r1,#0
        0x0000123a:    4308        .C      ORRS     r0,r0,r1
        0x0000123c:    4948        HI      LDR      r1,[pc,#288] ; [0x1360] = 0x40140000
        0x0000123e:    3140        @1      ADDS     r1,r1,#0x40
        0x00001240:    6148        Ha      STR      r0,[r1,#0x14]
        0x00001242:    e025        %.      B        0x1290 ; DrvPWM_SetTimerClk + 856
        0x00001244:    4847        GH      LDR      r0,[pc,#284] ; [0x1364] = 0x20000144
        0x00001246:    6800        .h      LDR      r0,[r0,#0]
        0x00001248:    2800        .(      CMP      r0,#0
        0x0000124a:    d010        ..      BEQ      0x126e ; DrvPWM_SetTimerClk + 822
        0x0000124c:    4844        DH      LDR      r0,[pc,#272] ; [0x1360] = 0x40140000
        0x0000124e:    3040        @0      ADDS     r0,r0,#0x40
        0x00001250:    6940        @i      LDR      r0,[r0,#0x14]
        0x00001252:    4945        EI      LDR      r1,[pc,#276] ; [0x1368] = 0xf000f
        0x00001254:    4008        .@      ANDS     r0,r0,r1
        0x00001256:    68e1        .h      LDR      r1,[r4,#0xc]
        0x00001258:    2900        .)      CMP      r1,#0
        0x0000125a:    d002        ..      BEQ      0x1262 ; DrvPWM_SetTimerClk + 810
        0x0000125c:    2101        .!      MOVS     r1,#1
        0x0000125e:    0409        ..      LSLS     r1,r1,#16
        0x00001260:    e000        ..      B        0x1264 ; DrvPWM_SetTimerClk + 812
        0x00001262:    2100        .!      MOVS     r1,#0
        0x00001264:    4308        .C      ORRS     r0,r0,r1
        0x00001266:    493e        >I      LDR      r1,[pc,#248] ; [0x1360] = 0x40140000
        0x00001268:    3140        @1      ADDS     r1,r1,#0x40
        0x0000126a:    6148        Ha      STR      r0,[r1,#0x14]
        0x0000126c:    e00f        ..      B        0x128e ; DrvPWM_SetTimerClk + 854
        0x0000126e:    483c        <H      LDR      r0,[pc,#240] ; [0x1360] = 0x40140000
        0x00001270:    3040        @0      ADDS     r0,r0,#0x40
        0x00001272:    6940        @i      LDR      r0,[r0,#0x14]
        0x00001274:    493d        =I      LDR      r1,[pc,#244] ; [0x136c] = 0xffefffef
        0x00001276:    4008        .@      ANDS     r0,r0,r1
        0x00001278:    68e1        .h      LDR      r1,[r4,#0xc]
        0x0000127a:    2900        .)      CMP      r1,#0
        0x0000127c:    d002        ..      BEQ      0x1284 ; DrvPWM_SetTimerClk + 844
        0x0000127e:    2101        .!      MOVS     r1,#1
        0x00001280:    0409        ..      LSLS     r1,r1,#16
        0x00001282:    e000        ..      B        0x1286 ; DrvPWM_SetTimerClk + 846
        0x00001284:    2100        .!      MOVS     r1,#0
        0x00001286:    4308        .C      ORRS     r0,r0,r1
        0x00001288:    4935        5I      LDR      r1,[pc,#212] ; [0x1360] = 0x40140000
        0x0000128a:    3140        @1      ADDS     r1,r1,#0x40
        0x0000128c:    6148        Ha      STR      r0,[r1,#0x14]
        0x0000128e:    bf00        ..      NOP      
        0x00001290:    bf00        ..      NOP      
        0x00001292:    0768        h.      LSLS     r0,r5,#29
        0x00001294:    0f40        @.      LSRS     r0,r0,#29
        0x00001296:    0003        ..      MOVS     r3,r0
        0x00001298:    f002fd8c    ....    BL       __ARM_common_switch8 ; 0x3db4
    $d
        0x0000129c:    07060508    ....    DCD    117835016
        0x000012a0:    21201f08    .. !    DCD    555753224
        0x000012a4:    3d22        "=      DCW    15650
    $t
        0x000012a6:    bf00        ..      NOP      
        0x000012a8:    bf00        ..      NOP      
        0x000012aa:    bf00        ..      NOP      
        0x000012ac:    482b        +H      LDR      r0,[pc,#172] ; [0x135c] = 0x40040000
        0x000012ae:    6882        .h      LDR      r2,[r0,#8]
        0x000012b0:    0768        h.      LSLS     r0,r5,#29
        0x000012b2:    0e80        ..      LSRS     r0,r0,#26
        0x000012b4:    1cc0        ..      ADDS     r0,r0,#3
        0x000012b6:    2101        .!      MOVS     r1,#1
        0x000012b8:    4081        .@      LSLS     r1,r1,r0
        0x000012ba:    4610        .F      MOV      r0,r2
        0x000012bc:    4388        .C      BICS     r0,r0,r1
        0x000012be:    7821        !x      LDRB     r1,[r4,#0]
        0x000012c0:    2900        .)      CMP      r1,#0
        0x000012c2:    d005        ..      BEQ      0x12d0 ; DrvPWM_SetTimerClk + 920
        0x000012c4:    0769        i.      LSLS     r1,r5,#29
        0x000012c6:    0e8a        ..      LSRS     r2,r1,#26
        0x000012c8:    1cd2        ..      ADDS     r2,r2,#3
        0x000012ca:    2101        .!      MOVS     r1,#1
        0x000012cc:    4091        .@      LSLS     r1,r1,r2
        0x000012ce:    e000        ..      B        0x12d2 ; DrvPWM_SetTimerClk + 922
        0x000012d0:    2100        .!      MOVS     r1,#0
        0x000012d2:    4308        .C      ORRS     r0,r0,r1
        0x000012d4:    4921        !I      LDR      r1,[pc,#132] ; [0x135c] = 0x40040000
        0x000012d6:    6088        .`      STR      r0,[r1,#8]
        0x000012d8:    e01d        ..      B        0x1316 ; DrvPWM_SetTimerClk + 990
        0x000012da:    bf00        ..      NOP      
        0x000012dc:    bf00        ..      NOP      
        0x000012de:    bf00        ..      NOP      
        0x000012e0:    481f        .H      LDR      r0,[pc,#124] ; [0x1360] = 0x40140000
        0x000012e2:    6882        .h      LDR      r2,[r0,#8]
        0x000012e4:    0768        h.      LSLS     r0,r5,#29
        0x000012e6:    0f40        @.      LSRS     r0,r0,#29
        0x000012e8:    1f00        ..      SUBS     r0,r0,#4
        0x000012ea:    00c0        ..      LSLS     r0,r0,#3
        0x000012ec:    1cc0        ..      ADDS     r0,r0,#3
        0x000012ee:    2101        .!      MOVS     r1,#1
        0x000012f0:    4081        .@      LSLS     r1,r1,r0
        0x000012f2:    4610        .F      MOV      r0,r2
        0x000012f4:    4388        .C      BICS     r0,r0,r1
        0x000012f6:    7821        !x      LDRB     r1,[r4,#0]
        0x000012f8:    2900        .)      CMP      r1,#0
        0x000012fa:    d007        ..      BEQ      0x130c ; DrvPWM_SetTimerClk + 980
        0x000012fc:    0769        i.      LSLS     r1,r5,#29
        0x000012fe:    0f49        I.      LSRS     r1,r1,#29
        0x00001300:    1f09        ..      SUBS     r1,r1,#4
        0x00001302:    00ca        ..      LSLS     r2,r1,#3
        0x00001304:    1cd2        ..      ADDS     r2,r2,#3
        0x00001306:    2101        .!      MOVS     r1,#1
        0x00001308:    4091        .@      LSLS     r1,r1,r2
        0x0000130a:    e000        ..      B        0x130e ; DrvPWM_SetTimerClk + 982
        0x0000130c:    2100        .!      MOVS     r1,#0
        0x0000130e:    4308        .C      ORRS     r0,r0,r1
        0x00001310:    4913        .I      LDR      r1,[pc,#76] ; [0x1360] = 0x40140000
        0x00001312:    6088        .`      STR      r0,[r1,#8]
        0x00001314:    bf00        ..      NOP      
        0x00001316:    bf00        ..      NOP      
        0x00001318:    6860        `h      LDR      r0,[r4,#4]
        0x0000131a:    2800        .(      CMP      r0,#0
        0x0000131c:    d17e        ~.      BNE      0x141c ; DrvPWM_SetTimerClk + 1252
        0x0000131e:    2001        .       MOVS     r0,#1
        0x00001320:    9002        ..      STR      r0,[sp,#8]
        0x00001322:    0768        h.      LSLS     r0,r5,#29
        0x00001324:    0f40        @.      LSRS     r0,r0,#29
        0x00001326:    0003        ..      MOVS     r3,r0
        0x00001328:    f002fd44    ..D.    BL       __ARM_common_switch8 ; 0x3db4
    $d
        0x0000132c:    22060508    ..."    DCD    570819848
        0x00001330:    3b323123    #12;    DCD    993145123
        0x00001334:    4a3c        <J      DCW    19004
    $t
        0x00001336:    bf00        ..      NOP      
        0x00001338:    4808        .H      LDR      r0,[pc,#32] ; [0x135c] = 0x40040000
        0x0000133a:    6800        .h      LDR      r0,[r0,#0]
        0x0000133c:    0a00        ..      LSRS     r0,r0,#8
        0x0000133e:    0200        ..      LSLS     r0,r0,#8
        0x00001340:    78e1        .x      LDRB     r1,[r4,#3]
        0x00001342:    4308        .C      ORRS     r0,r0,r1
        0x00001344:    4905        .I      LDR      r1,[pc,#20] ; [0x135c] = 0x40040000
        0x00001346:    6008        .`      STR      r0,[r1,#0]
        0x00001348:    e03a        :.      B        0x13c0 ; DrvPWM_SetTimerClk + 1160
    $d
        0x0000134a:    0000        ..      DCW    0
        0x0000134c:    50000200    ...P    DCD    1342177792
        0x00001350:    00b71b00    ....    DCD    12000000
        0x00001354:    20000000    ...     DCD    536870912
        0x00001358:    01518000    ..Q.    DCD    22118400
        0x0000135c:    40040000    ...@    DCD    1074003968
        0x00001360:    40140000    ...@    DCD    1075052544
        0x00001364:    20000144    D..     DCD    536871236
        0x00001368:    000f000f    ....    DCD    983055
        0x0000136c:    ffefffef    ....    DCD    4293918703
    $t
        0x00001370:    bf00        ..      NOP      
        0x00001372:    48f6        .H      LDR      r0,[pc,#984] ; [0x174c] = 0x40040000
        0x00001374:    6800        .h      LDR      r0,[r0,#0]
        0x00001376:    21ff        .!      MOVS     r1,#0xff
        0x00001378:    0209        ..      LSLS     r1,r1,#8
        0x0000137a:    4388        .C      BICS     r0,r0,r1
        0x0000137c:    78e1        .x      LDRB     r1,[r4,#3]
        0x0000137e:    0209        ..      LSLS     r1,r1,#8
        0x00001380:    22ff        ."      MOVS     r2,#0xff
        0x00001382:    0212        ..      LSLS     r2,r2,#8
        0x00001384:    4011        .@      ANDS     r1,r1,r2
        0x00001386:    4308        .C      ORRS     r0,r0,r1
        0x00001388:    49f0        .I      LDR      r1,[pc,#960] ; [0x174c] = 0x40040000
        0x0000138a:    6008        .`      STR      r0,[r1,#0]
        0x0000138c:    e018        ..      B        0x13c0 ; DrvPWM_SetTimerClk + 1160
        0x0000138e:    bf00        ..      NOP      
        0x00001390:    48ef        .H      LDR      r0,[pc,#956] ; [0x1750] = 0x40140000
        0x00001392:    6800        .h      LDR      r0,[r0,#0]
        0x00001394:    0a00        ..      LSRS     r0,r0,#8
        0x00001396:    0200        ..      LSLS     r0,r0,#8
        0x00001398:    78e1        .x      LDRB     r1,[r4,#3]
        0x0000139a:    4308        .C      ORRS     r0,r0,r1
        0x0000139c:    49ec        .I      LDR      r1,[pc,#944] ; [0x1750] = 0x40140000
        0x0000139e:    6008        .`      STR      r0,[r1,#0]
        0x000013a0:    e00e        ..      B        0x13c0 ; DrvPWM_SetTimerClk + 1160
        0x000013a2:    bf00        ..      NOP      
        0x000013a4:    48ea        .H      LDR      r0,[pc,#936] ; [0x1750] = 0x40140000
        0x000013a6:    6800        .h      LDR      r0,[r0,#0]
        0x000013a8:    21ff        .!      MOVS     r1,#0xff
        0x000013aa:    0209        ..      LSLS     r1,r1,#8
        0x000013ac:    4388        .C      BICS     r0,r0,r1
        0x000013ae:    78e1        .x      LDRB     r1,[r4,#3]
        0x000013b0:    0209        ..      LSLS     r1,r1,#8
        0x000013b2:    22ff        ."      MOVS     r2,#0xff
        0x000013b4:    0212        ..      LSLS     r2,r2,#8
        0x000013b6:    4011        .@      ANDS     r1,r1,r2
        0x000013b8:    4308        .C      ORRS     r0,r0,r1
        0x000013ba:    49e5        .I      LDR      r1,[pc,#916] ; [0x1750] = 0x40140000
        0x000013bc:    6008        .`      STR      r0,[r1,#0]
        0x000013be:    bf00        ..      NOP      
        0x000013c0:    bf00        ..      NOP      
        0x000013c2:    7862        bx      LDRB     r2,[r4,#1]
        0x000013c4:    68a1        .h      LDR      r1,[r4,#8]
        0x000013c6:    4351        QC      MULS     r1,r2,r1
        0x000013c8:    4608        .F      MOV      r0,r1
        0x000013ca:    2164        d!      MOVS     r1,#0x64
        0x000013cc:    f7fefefe    ....    BL       __aeabi_uidiv ; 0x1cc
        0x000013d0:    1e46        F.      SUBS     r6,r0,#1
        0x000013d2:    0768        h.      LSLS     r0,r5,#29
        0x000013d4:    0f40        @.      LSRS     r0,r0,#29
        0x000013d6:    0003        ..      MOVS     r3,r0
        0x000013d8:    f002fcec    ....    BL       __ARM_common_switch8 ; 0x3db4
    $d
        0x000013dc:    07060508    ....    DCD    117835016
        0x000013e0:    2d2c2b08    .+,-    DCD    757869320
        0x000013e4:    552e        .U      DCW    21806
    $t
        0x000013e6:    bf00        ..      NOP      
        0x000013e8:    bf00        ..      NOP      
        0x000013ea:    bf00        ..      NOP      
        0x000013ec:    48d7        .H      LDR      r0,[pc,#860] ; [0x174c] = 0x40040000
        0x000013ee:    6840        @h      LDR      r0,[r0,#4]
        0x000013f0:    0769        i.      LSLS     r1,r5,#29
        0x000013f2:    0eca        ..      LSRS     r2,r1,#27
        0x000013f4:    2107        .!      MOVS     r1,#7
        0x000013f6:    4091        .@      LSLS     r1,r1,r2
        0x000013f8:    4388        .C      BICS     r0,r0,r1
        0x000013fa:    78a1        .x      LDRB     r1,[r4,#2]
        0x000013fc:    0749        I.      LSLS     r1,r1,#29
        0x000013fe:    0f49        I.      LSRS     r1,r1,#29
        0x00001400:    076a        j.      LSLS     r2,r5,#29
        0x00001402:    0ed2        ..      LSRS     r2,r2,#27
        0x00001404:    4091        .@      LSLS     r1,r1,r2
        0x00001406:    4308        .C      ORRS     r0,r0,r1
        0x00001408:    49d0        .I      LDR      r1,[pc,#832] ; [0x174c] = 0x40040000
        0x0000140a:    6048        H`      STR      r0,[r1,#4]
        0x0000140c:    68a0        .h      LDR      r0,[r4,#8]
        0x0000140e:    1e40        @.      SUBS     r0,r0,#1
        0x00001410:    0769        i.      LSLS     r1,r5,#29
        0x00001412:    0f49        I.      LSRS     r1,r1,#29
        0x00001414:    220c        ."      MOVS     r2,#0xc
        0x00001416:    4351        QC      MULS     r1,r2,r1
        0x00001418:    4acc        .J      LDR      r2,[pc,#816] ; [0x174c] = 0x40040000
        0x0000141a:    e000        ..      B        0x141e ; DrvPWM_SetTimerClk + 1254
        0x0000141c:    e05b        [.      B        0x14d6 ; DrvPWM_SetTimerClk + 1438
        0x0000141e:    1889        ..      ADDS     r1,r1,r2
        0x00001420:    60c8        .`      STR      r0,[r1,#0xc]
        0x00001422:    0768        h.      LSLS     r0,r5,#29
        0x00001424:    0f40        @.      LSRS     r0,r0,#29
        0x00001426:    210c        .!      MOVS     r1,#0xc
        0x00001428:    4348        HC      MULS     r0,r1,r0
        0x0000142a:    4611        .F      MOV      r1,r2
        0x0000142c:    1840        @.      ADDS     r0,r0,r1
        0x0000142e:    6106        .a      STR      r6,[r0,#0x10]
        0x00001430:    e029        ).      B        0x1486 ; DrvPWM_SetTimerClk + 1358
        0x00001432:    bf00        ..      NOP      
        0x00001434:    bf00        ..      NOP      
        0x00001436:    bf00        ..      NOP      
        0x00001438:    48c5        .H      LDR      r0,[pc,#788] ; [0x1750] = 0x40140000
        0x0000143a:    6840        @h      LDR      r0,[r0,#4]
        0x0000143c:    0769        i.      LSLS     r1,r5,#29
        0x0000143e:    0f49        I.      LSRS     r1,r1,#29
        0x00001440:    1f09        ..      SUBS     r1,r1,#4
        0x00001442:    008a        ..      LSLS     r2,r1,#2
        0x00001444:    2107        .!      MOVS     r1,#7
        0x00001446:    4091        .@      LSLS     r1,r1,r2
        0x00001448:    4388        .C      BICS     r0,r0,r1
        0x0000144a:    78a1        .x      LDRB     r1,[r4,#2]
        0x0000144c:    0749        I.      LSLS     r1,r1,#29
        0x0000144e:    0f49        I.      LSRS     r1,r1,#29
        0x00001450:    076a        j.      LSLS     r2,r5,#29
        0x00001452:    0f52        R.      LSRS     r2,r2,#29
        0x00001454:    1f12        ..      SUBS     r2,r2,#4
        0x00001456:    0092        ..      LSLS     r2,r2,#2
        0x00001458:    4091        .@      LSLS     r1,r1,r2
        0x0000145a:    4308        .C      ORRS     r0,r0,r1
        0x0000145c:    49bc        .I      LDR      r1,[pc,#752] ; [0x1750] = 0x40140000
        0x0000145e:    6048        H`      STR      r0,[r1,#4]
        0x00001460:    68a1        .h      LDR      r1,[r4,#8]
        0x00001462:    1e49        I.      SUBS     r1,r1,#1
        0x00001464:    0768        h.      LSLS     r0,r5,#29
        0x00001466:    0f40        @.      LSRS     r0,r0,#29
        0x00001468:    1f00        ..      SUBS     r0,r0,#4
        0x0000146a:    220c        ."      MOVS     r2,#0xc
        0x0000146c:    4350        PC      MULS     r0,r2,r0
        0x0000146e:    4ab8        .J      LDR      r2,[pc,#736] ; [0x1750] = 0x40140000
        0x00001470:    1880        ..      ADDS     r0,r0,r2
        0x00001472:    60c1        .`      STR      r1,[r0,#0xc]
        0x00001474:    0768        h.      LSLS     r0,r5,#29
        0x00001476:    0f40        @.      LSRS     r0,r0,#29
        0x00001478:    1f00        ..      SUBS     r0,r0,#4
        0x0000147a:    210c        .!      MOVS     r1,#0xc
        0x0000147c:    4348        HC      MULS     r0,r1,r0
        0x0000147e:    4611        .F      MOV      r1,r2
        0x00001480:    1840        @.      ADDS     r0,r0,r1
        0x00001482:    6106        .a      STR      r6,[r0,#0x10]
        0x00001484:    bf00        ..      NOP      
        0x00001486:    bf00        ..      NOP      
        0x00001488:    78a0        .x      LDRB     r0,[r4,#2]
        0x0000148a:    0003        ..      MOVS     r3,r0
        0x0000148c:    f002fc92    ....    BL       __ARM_common_switch8 ; 0x3db4
    $d
        0x00001490:    0d0a0705    ....    DCD    218760965
        0x00001494:    00130410    ....    DCD    1246224
    $t
        0x00001498:    2001        .       MOVS     r0,#1
        0x0000149a:    9002        ..      STR      r0,[sp,#8]
        0x0000149c:    e00b        ..      B        0x14b6 ; DrvPWM_SetTimerClk + 1406
        0x0000149e:    2002        .       MOVS     r0,#2
        0x000014a0:    9002        ..      STR      r0,[sp,#8]
        0x000014a2:    e008        ..      B        0x14b6 ; DrvPWM_SetTimerClk + 1406
        0x000014a4:    2004        .       MOVS     r0,#4
        0x000014a6:    9002        ..      STR      r0,[sp,#8]
        0x000014a8:    e005        ..      B        0x14b6 ; DrvPWM_SetTimerClk + 1406
        0x000014aa:    2008        .       MOVS     r0,#8
        0x000014ac:    9002        ..      STR      r0,[sp,#8]
        0x000014ae:    e002        ..      B        0x14b6 ; DrvPWM_SetTimerClk + 1406
        0x000014b0:    2010        .       MOVS     r0,#0x10
        0x000014b2:    9002        ..      STR      r0,[sp,#8]
        0x000014b4:    bf00        ..      NOP      
        0x000014b6:    bf00        ..      NOP      
        0x000014b8:    78e0        .x      LDRB     r0,[r4,#3]
        0x000014ba:    1c41        A.      ADDS     r1,r0,#1
        0x000014bc:    9807        ..      LDR      r0,[sp,#0x1c]
        0x000014be:    f7fefe85    ....    BL       __aeabi_uidiv ; 0x1cc
        0x000014c2:    9001        ..      STR      r0,[sp,#4]
        0x000014c4:    9902        ..      LDR      r1,[sp,#8]
        0x000014c6:    f7fefe81    ....    BL       __aeabi_uidiv ; 0x1cc
        0x000014ca:    4607        .F      MOV      r7,r0
        0x000014cc:    68a1        .h      LDR      r1,[r4,#8]
        0x000014ce:    f7fefe7d    ..}.    BL       __aeabi_uidiv ; 0x1cc
        0x000014d2:    9008        ..      STR      r0,[sp,#0x20]
        0x000014d4:    e137        7.      B        0x1746 ; DrvPWM_SetTimerClk + 2062
        0x000014d6:    6861        ah      LDR      r1,[r4,#4]
        0x000014d8:    9807        ..      LDR      r0,[sp,#0x1c]
        0x000014da:    f7fefe77    ..w.    BL       __aeabi_uidiv ; 0x1cc
        0x000014de:    9008        ..      STR      r0,[sp,#0x20]
        0x000014e0:    2101        .!      MOVS     r1,#1
        0x000014e2:    0709        ..      LSLS     r1,r1,#28
        0x000014e4:    9808        ..      LDR      r0,[sp,#0x20]
        0x000014e6:    4288        .B      CMP      r0,r1
        0x000014e8:    d902        ..      BLS      0x14f0 ; DrvPWM_SetTimerClk + 1464
        0x000014ea:    2000        .       MOVS     r0,#0
        0x000014ec:    b009        ..      ADD      sp,sp,#0x24
        0x000014ee:    bdf0        ..      POP      {r4-r7,pc}
        0x000014f0:    2701        .'      MOVS     r7,#1
        0x000014f2:    0479        y.      LSLS     r1,r7,#17
        0x000014f4:    9808        ..      LDR      r0,[sp,#0x20]
        0x000014f6:    4288        .B      CMP      r0,r1
        0x000014f8:    d201        ..      BCS      0x14fe ; DrvPWM_SetTimerClk + 1478
        0x000014fa:    2602        .&      MOVS     r6,#2
        0x000014fc:    e03d        =.      B        0x157a ; DrvPWM_SetTimerClk + 1602
        0x000014fe:    9808        ..      LDR      r0,[sp,#0x20]
        0x00001500:    0c06        ..      LSRS     r6,r0,#16
        0x00001502:    4631        1F      MOV      r1,r6
        0x00001504:    9808        ..      LDR      r0,[sp,#0x20]
        0x00001506:    f7fefe61    ..a.    BL       __aeabi_uidiv ; 0x1cc
        0x0000150a:    2101        .!      MOVS     r1,#1
        0x0000150c:    0409        ..      LSLS     r1,r1,#16
        0x0000150e:    4288        .B      CMP      r0,r1
        0x00001510:    d901        ..      BLS      0x1516 ; DrvPWM_SetTimerClk + 1502
        0x00001512:    1c70        p.      ADDS     r0,r6,#1
        0x00001514:    b286        ..      UXTH     r6,r0
        0x00001516:    20ff        .       MOVS     r0,#0xff
        0x00001518:    3001        .0      ADDS     r0,#1
        0x0000151a:    4286        .B      CMP      r6,r0
        0x0000151c:    dd2d        -.      BLE      0x157a ; DrvPWM_SetTimerClk + 1602
        0x0000151e:    2000        .       MOVS     r0,#0
        0x00001520:    9002        ..      STR      r0,[sp,#8]
        0x00001522:    26ff        .&      MOVS     r6,#0xff
        0x00001524:    3601        .6      ADDS     r6,#1
        0x00001526:    4631        1F      MOV      r1,r6
        0x00001528:    9808        ..      LDR      r0,[sp,#0x20]
        0x0000152a:    f7fefe4f    ..O.    BL       __aeabi_uidiv ; 0x1cc
        0x0000152e:    9008        ..      STR      r0,[sp,#0x20]
        0x00001530:    9808        ..      LDR      r0,[sp,#0x20]
        0x00001532:    0200        ..      LSLS     r0,r0,#8
        0x00001534:    0e07        ..      LSRS     r7,r0,#24
        0x00001536:    4639        9F      MOV      r1,r7
        0x00001538:    9808        ..      LDR      r0,[sp,#0x20]
        0x0000153a:    f7fefe47    ..G.    BL       __aeabi_uidiv ; 0x1cc
        0x0000153e:    0231        1.      LSLS     r1,r6,#8
        0x00001540:    4288        .B      CMP      r0,r1
        0x00001542:    d901        ..      BLS      0x1548 ; DrvPWM_SetTimerClk + 1552
        0x00001544:    1c78        x.      ADDS     r0,r7,#1
        0x00001546:    b2c7        ..      UXTB     r7,r0
        0x00001548:    e008        ..      B        0x155c ; DrvPWM_SetTimerClk + 1572
        0x0000154a:    9802        ..      LDR      r0,[sp,#8]
        0x0000154c:    1c41        A.      ADDS     r1,r0,#1
        0x0000154e:    b2c9        ..      UXTB     r1,r1
        0x00001550:    9102        ..      STR      r1,[sp,#8]
        0x00001552:    2101        .!      MOVS     r1,#1
        0x00001554:    4081        .@      LSLS     r1,r1,r0
        0x00001556:    42b9        .B      CMP      r1,r7
        0x00001558:    dd00        ..      BLE      0x155c ; DrvPWM_SetTimerClk + 1572
        0x0000155a:    e000        ..      B        0x155e ; DrvPWM_SetTimerClk + 1574
        0x0000155c:    e7f5        ..      B        0x154a ; DrvPWM_SetTimerClk + 1554
        0x0000155e:    bf00        ..      NOP      
        0x00001560:    9802        ..      LDR      r0,[sp,#8]
        0x00001562:    1e40        @.      SUBS     r0,r0,#1
        0x00001564:    2101        .!      MOVS     r1,#1
        0x00001566:    4081        .@      LSLS     r1,r1,r0
        0x00001568:    b2cf        ..      UXTB     r7,r1
        0x0000156a:    2f10        ./      CMP      r7,#0x10
        0x0000156c:    dd01        ..      BLE      0x1572 ; DrvPWM_SetTimerClk + 1594
        0x0000156e:    2000        .       MOVS     r0,#0
        0x00001570:    e7bc        ..      B        0x14ec ; DrvPWM_SetTimerClk + 1460
        0x00001572:    9808        ..      LDR      r0,[sp,#0x20]
        0x00001574:    4370        pC      MULS     r0,r6,r0
        0x00001576:    9008        ..      STR      r0,[sp,#0x20]
        0x00001578:    bf00        ..      NOP      
        0x0000157a:    4631        1F      MOV      r1,r6
        0x0000157c:    9808        ..      LDR      r0,[sp,#0x20]
        0x0000157e:    f7fefe25    ..%.    BL       __aeabi_uidiv ; 0x1cc
        0x00001582:    4639        9F      MOV      r1,r7
        0x00001584:    9002        ..      STR      r0,[sp,#8]
        0x00001586:    f7fefe21    ..!.    BL       __aeabi_uidiv ; 0x1cc
        0x0000158a:    b280        ..      UXTH     r0,r0
        0x0000158c:    9006        ..      STR      r0,[sp,#0x18]
        0x0000158e:    4631        1F      MOV      r1,r6
        0x00001590:    9807        ..      LDR      r0,[sp,#0x1c]
        0x00001592:    f7fefe1b    ....    BL       __aeabi_uidiv ; 0x1cc
        0x00001596:    4639        9F      MOV      r1,r7
        0x00001598:    9001        ..      STR      r0,[sp,#4]
        0x0000159a:    f7fefe17    ....    BL       __aeabi_uidiv ; 0x1cc
        0x0000159e:    9002        ..      STR      r0,[sp,#8]
        0x000015a0:    9906        ..      LDR      r1,[sp,#0x18]
        0x000015a2:    f7fefe13    ....    BL       __aeabi_uidiv ; 0x1cc
        0x000015a6:    9008        ..      STR      r0,[sp,#0x20]
        0x000015a8:    0768        h.      LSLS     r0,r5,#29
        0x000015aa:    0f40        @.      LSRS     r0,r0,#29
        0x000015ac:    0003        ..      MOVS     r3,r0
        0x000015ae:    f002fc01    ....    BL       __ARM_common_switch8 ; 0x3db4
    $d
        0x000015b2:    0508        ..      DCW    1288
        0x000015b4:    1f111006    ....    DCD    521211910
        0x000015b8:    392b2a20     *+9    DCD    959130144
    $t
        0x000015bc:    bf00        ..      NOP      
        0x000015be:    4863        cH      LDR      r0,[pc,#396] ; [0x174c] = 0x40040000
        0x000015c0:    6800        .h      LDR      r0,[r0,#0]
        0x000015c2:    0a00        ..      LSRS     r0,r0,#8
        0x000015c4:    0200        ..      LSLS     r0,r0,#8
        0x000015c6:    1e71        q.      SUBS     r1,r6,#1
        0x000015c8:    b2c9        ..      UXTB     r1,r1
        0x000015ca:    4308        .C      ORRS     r0,r0,r1
        0x000015cc:    495f        _I      LDR      r1,[pc,#380] ; [0x174c] = 0x40040000
        0x000015ce:    6008        .`      STR      r0,[r1,#0]
        0x000015d0:    e028        (.      B        0x1624 ; DrvPWM_SetTimerClk + 1772
        0x000015d2:    bf00        ..      NOP      
        0x000015d4:    485d        ]H      LDR      r0,[pc,#372] ; [0x174c] = 0x40040000
        0x000015d6:    6800        .h      LDR      r0,[r0,#0]
        0x000015d8:    21ff        .!      MOVS     r1,#0xff
        0x000015da:    0209        ..      LSLS     r1,r1,#8
        0x000015dc:    4388        .C      BICS     r0,r0,r1
        0x000015de:    1e71        q.      SUBS     r1,r6,#1
        0x000015e0:    0209        ..      LSLS     r1,r1,#8
        0x000015e2:    22ff        ."      MOVS     r2,#0xff
        0x000015e4:    0212        ..      LSLS     r2,r2,#8
        0x000015e6:    4011        .@      ANDS     r1,r1,r2
        0x000015e8:    4308        .C      ORRS     r0,r0,r1
        0x000015ea:    4958        XI      LDR      r1,[pc,#352] ; [0x174c] = 0x40040000
        0x000015ec:    6008        .`      STR      r0,[r1,#0]
        0x000015ee:    e019        ..      B        0x1624 ; DrvPWM_SetTimerClk + 1772
        0x000015f0:    bf00        ..      NOP      
        0x000015f2:    4857        WH      LDR      r0,[pc,#348] ; [0x1750] = 0x40140000
        0x000015f4:    6800        .h      LDR      r0,[r0,#0]
        0x000015f6:    0a00        ..      LSRS     r0,r0,#8
        0x000015f8:    0200        ..      LSLS     r0,r0,#8
        0x000015fa:    1e71        q.      SUBS     r1,r6,#1
        0x000015fc:    b2c9        ..      UXTB     r1,r1
        0x000015fe:    4308        .C      ORRS     r0,r0,r1
        0x00001600:    4953        SI      LDR      r1,[pc,#332] ; [0x1750] = 0x40140000
        0x00001602:    6008        .`      STR      r0,[r1,#0]
        0x00001604:    e00e        ..      B        0x1624 ; DrvPWM_SetTimerClk + 1772
        0x00001606:    bf00        ..      NOP      
        0x00001608:    4851        QH      LDR      r0,[pc,#324] ; [0x1750] = 0x40140000
        0x0000160a:    6800        .h      LDR      r0,[r0,#0]
        0x0000160c:    21ff        .!      MOVS     r1,#0xff
        0x0000160e:    0209        ..      LSLS     r1,r1,#8
        0x00001610:    4388        .C      BICS     r0,r0,r1
        0x00001612:    1e71        q.      SUBS     r1,r6,#1
        0x00001614:    0209        ..      LSLS     r1,r1,#8
        0x00001616:    22ff        ."      MOVS     r2,#0xff
        0x00001618:    0212        ..      LSLS     r2,r2,#8
        0x0000161a:    4011        .@      ANDS     r1,r1,r2
        0x0000161c:    4308        .C      ORRS     r0,r0,r1
        0x0000161e:    494c        LI      LDR      r1,[pc,#304] ; [0x1750] = 0x40140000
        0x00001620:    6008        .`      STR      r0,[r1,#0]
        0x00001622:    bf00        ..      NOP      
        0x00001624:    bf00        ..      NOP      
        0x00001626:    2f04        ./      CMP      r7,#4
        0x00001628:    d00e        ..      BEQ      0x1648 ; DrvPWM_SetTimerClk + 1808
        0x0000162a:    dc04        ..      BGT      0x1636 ; DrvPWM_SetTimerClk + 1790
        0x0000162c:    2f01        ./      CMP      r7,#1
        0x0000162e:    d007        ..      BEQ      0x1640 ; DrvPWM_SetTimerClk + 1800
        0x00001630:    2f02        ./      CMP      r7,#2
        0x00001632:    d10f        ..      BNE      0x1654 ; DrvPWM_SetTimerClk + 1820
        0x00001634:    e006        ..      B        0x1644 ; DrvPWM_SetTimerClk + 1804
        0x00001636:    2f08        ./      CMP      r7,#8
        0x00001638:    d008        ..      BEQ      0x164c ; DrvPWM_SetTimerClk + 1812
        0x0000163a:    2f10        ./      CMP      r7,#0x10
        0x0000163c:    d10a        ..      BNE      0x1654 ; DrvPWM_SetTimerClk + 1820
        0x0000163e:    e007        ..      B        0x1650 ; DrvPWM_SetTimerClk + 1816
        0x00001640:    2704        .'      MOVS     r7,#4
        0x00001642:    e007        ..      B        0x1654 ; DrvPWM_SetTimerClk + 1820
        0x00001644:    2700        .'      MOVS     r7,#0
        0x00001646:    e005        ..      B        0x1654 ; DrvPWM_SetTimerClk + 1820
        0x00001648:    2701        .'      MOVS     r7,#1
        0x0000164a:    e003        ..      B        0x1654 ; DrvPWM_SetTimerClk + 1820
        0x0000164c:    2702        .'      MOVS     r7,#2
        0x0000164e:    e001        ..      B        0x1654 ; DrvPWM_SetTimerClk + 1820
        0x00001650:    2703        .'      MOVS     r7,#3
        0x00001652:    bf00        ..      NOP      
        0x00001654:    bf00        ..      NOP      
        0x00001656:    2010        .       MOVS     r0,#0x10
        0x00001658:    4205        .B      TST      r5,r0
        0x0000165a:    d00e        ..      BEQ      0x167a ; DrvPWM_SetTimerClk + 1858
        0x0000165c:    8920         .      LDRH     r0,[r4,#8]
        0x0000165e:    1e40        @.      SUBS     r0,r0,#1
        0x00001660:    b280        ..      UXTH     r0,r0
        0x00001662:    9005        ..      STR      r0,[sp,#0x14]
        0x00001664:    7862        bx      LDRB     r2,[r4,#1]
        0x00001666:    68a1        .h      LDR      r1,[r4,#8]
        0x00001668:    4351        QC      MULS     r1,r2,r1
        0x0000166a:    4608        .F      MOV      r0,r1
        0x0000166c:    2164        d!      MOVS     r1,#0x64
        0x0000166e:    f7fefdad    ....    BL       __aeabi_uidiv ; 0x1cc
        0x00001672:    1e40        @.      SUBS     r0,r0,#1
        0x00001674:    b280        ..      UXTH     r0,r0
        0x00001676:    9004        ..      STR      r0,[sp,#0x10]
        0x00001678:    e00d        ..      B        0x1696 ; DrvPWM_SetTimerClk + 1886
        0x0000167a:    9806        ..      LDR      r0,[sp,#0x18]
        0x0000167c:    1e40        @.      SUBS     r0,r0,#1
        0x0000167e:    b280        ..      UXTH     r0,r0
        0x00001680:    9005        ..      STR      r0,[sp,#0x14]
        0x00001682:    7861        ax      LDRB     r1,[r4,#1]
        0x00001684:    9a06        ..      LDR      r2,[sp,#0x18]
        0x00001686:    4351        QC      MULS     r1,r2,r1
        0x00001688:    4608        .F      MOV      r0,r1
        0x0000168a:    2164        d!      MOVS     r1,#0x64
        0x0000168c:    f7fefda8    ....    BL       __aeabi_idiv ; 0x1e0
        0x00001690:    1e40        @.      SUBS     r0,r0,#1
        0x00001692:    b280        ..      UXTH     r0,r0
        0x00001694:    9004        ..      STR      r0,[sp,#0x10]
        0x00001696:    0768        h.      LSLS     r0,r5,#29
        0x00001698:    0f40        @.      LSRS     r0,r0,#29
        0x0000169a:    0003        ..      MOVS     r3,r0
        0x0000169c:    f002fb8a    ....    BL       __ARM_common_switch8 ; 0x3db4
    $d
        0x000016a0:    07060508    ....    DCD    117835016
        0x000016a4:    2a292808    .()*    DCD    707340296
        0x000016a8:    512b        +Q      DCW    20779
    $t
        0x000016aa:    bf00        ..      NOP      
        0x000016ac:    bf00        ..      NOP      
        0x000016ae:    bf00        ..      NOP      
        0x000016b0:    4826        &H      LDR      r0,[pc,#152] ; [0x174c] = 0x40040000
        0x000016b2:    6840        @h      LDR      r0,[r0,#4]
        0x000016b4:    0769        i.      LSLS     r1,r5,#29
        0x000016b6:    0eca        ..      LSRS     r2,r1,#27
        0x000016b8:    2107        .!      MOVS     r1,#7
        0x000016ba:    4091        .@      LSLS     r1,r1,r2
        0x000016bc:    4388        .C      BICS     r0,r0,r1
        0x000016be:    0779        y.      LSLS     r1,r7,#29
        0x000016c0:    0f49        I.      LSRS     r1,r1,#29
        0x000016c2:    076a        j.      LSLS     r2,r5,#29
        0x000016c4:    0ed2        ..      LSRS     r2,r2,#27
        0x000016c6:    4091        .@      LSLS     r1,r1,r2
        0x000016c8:    4308        .C      ORRS     r0,r0,r1
        0x000016ca:    4920         I      LDR      r1,[pc,#128] ; [0x174c] = 0x40040000
        0x000016cc:    6048        H`      STR      r0,[r1,#4]
        0x000016ce:    0769        i.      LSLS     r1,r5,#29
        0x000016d0:    0f49        I.      LSRS     r1,r1,#29
        0x000016d2:    220c        ."      MOVS     r2,#0xc
        0x000016d4:    4351        QC      MULS     r1,r2,r1
        0x000016d6:    4a1d        .J      LDR      r2,[pc,#116] ; [0x174c] = 0x40040000
        0x000016d8:    1889        ..      ADDS     r1,r1,r2
        0x000016da:    9805        ..      LDR      r0,[sp,#0x14]
        0x000016dc:    60c8        .`      STR      r0,[r1,#0xc]
        0x000016de:    0769        i.      LSLS     r1,r5,#29
        0x000016e0:    0f49        I.      LSRS     r1,r1,#29
        0x000016e2:    220c        ."      MOVS     r2,#0xc
        0x000016e4:    4351        QC      MULS     r1,r2,r1
        0x000016e6:    4a19        .J      LDR      r2,[pc,#100] ; [0x174c] = 0x40040000
        0x000016e8:    1889        ..      ADDS     r1,r1,r2
        0x000016ea:    9804        ..      LDR      r0,[sp,#0x10]
        0x000016ec:    6108        .a      STR      r0,[r1,#0x10]
        0x000016ee:    e028        (.      B        0x1742 ; DrvPWM_SetTimerClk + 2058
        0x000016f0:    bf00        ..      NOP      
        0x000016f2:    bf00        ..      NOP      
        0x000016f4:    bf00        ..      NOP      
        0x000016f6:    4816        .H      LDR      r0,[pc,#88] ; [0x1750] = 0x40140000
        0x000016f8:    6840        @h      LDR      r0,[r0,#4]
        0x000016fa:    0769        i.      LSLS     r1,r5,#29
        0x000016fc:    0f49        I.      LSRS     r1,r1,#29
        0x000016fe:    1f09        ..      SUBS     r1,r1,#4
        0x00001700:    008a        ..      LSLS     r2,r1,#2
        0x00001702:    2107        .!      MOVS     r1,#7
        0x00001704:    4091        .@      LSLS     r1,r1,r2
        0x00001706:    4388        .C      BICS     r0,r0,r1
        0x00001708:    0779        y.      LSLS     r1,r7,#29
        0x0000170a:    0f49        I.      LSRS     r1,r1,#29
        0x0000170c:    076a        j.      LSLS     r2,r5,#29
        0x0000170e:    0f52        R.      LSRS     r2,r2,#29
        0x00001710:    1f12        ..      SUBS     r2,r2,#4
        0x00001712:    0092        ..      LSLS     r2,r2,#2
        0x00001714:    4091        .@      LSLS     r1,r1,r2
        0x00001716:    4308        .C      ORRS     r0,r0,r1
        0x00001718:    490d        .I      LDR      r1,[pc,#52] ; [0x1750] = 0x40140000
        0x0000171a:    6048        H`      STR      r0,[r1,#4]
        0x0000171c:    0768        h.      LSLS     r0,r5,#29
        0x0000171e:    0f40        @.      LSRS     r0,r0,#29
        0x00001720:    1f00        ..      SUBS     r0,r0,#4
        0x00001722:    220c        ."      MOVS     r2,#0xc
        0x00001724:    4350        PC      MULS     r0,r2,r0
        0x00001726:    4a0a        .J      LDR      r2,[pc,#40] ; [0x1750] = 0x40140000
        0x00001728:    1880        ..      ADDS     r0,r0,r2
        0x0000172a:    9905        ..      LDR      r1,[sp,#0x14]
        0x0000172c:    60c1        .`      STR      r1,[r0,#0xc]
        0x0000172e:    0768        h.      LSLS     r0,r5,#29
        0x00001730:    0f40        @.      LSRS     r0,r0,#29
        0x00001732:    1f00        ..      SUBS     r0,r0,#4
        0x00001734:    220c        ."      MOVS     r2,#0xc
        0x00001736:    4350        PC      MULS     r0,r2,r0
        0x00001738:    4a05        .J      LDR      r2,[pc,#20] ; [0x1750] = 0x40140000
        0x0000173a:    1880        ..      ADDS     r0,r0,r2
        0x0000173c:    9904        ..      LDR      r1,[sp,#0x10]
        0x0000173e:    6101        .a      STR      r1,[r0,#0x10]
        0x00001740:    bf00        ..      NOP      
        0x00001742:    bf00        ..      NOP      
        0x00001744:    bf00        ..      NOP      
        0x00001746:    9808        ..      LDR      r0,[sp,#0x20]
        0x00001748:    e6d0        ..      B        0x14ec ; DrvPWM_SetTimerClk + 1460
    $d
        0x0000174a:    0000        ..      DCW    0
        0x0000174c:    40040000    ...@    DCD    1074003968
        0x00001750:    40140000    ...@    DCD    1075052544
    $t
    i.DrvPWM_SetTimerIO
    DrvPWM_SetTimerIO
        0x00001754:    b510        ..      PUSH     {r4,lr}
        0x00001756:    2900        .)      CMP      r1,#0
        0x00001758:    d02d        -.      BEQ      0x17b6 ; DrvPWM_SetTimerIO + 98
        0x0000175a:    2210        ."      MOVS     r2,#0x10
        0x0000175c:    4210        .B      TST      r0,r2
        0x0000175e:    d016        ..      BEQ      0x178e ; DrvPWM_SetTimerIO + 58
        0x00001760:    2204        ."      MOVS     r2,#4
        0x00001762:    4210        .B      TST      r0,r2
        0x00001764:    d009        ..      BEQ      0x177a ; DrvPWM_SetTimerIO + 38
        0x00001766:    4a2b        +J      LDR      r2,[pc,#172] ; [0x1814] = 0x40140040
        0x00001768:    6b92        .k      LDR      r2,[r2,#0x38]
        0x0000176a:    4603        .F      MOV      r3,r0
        0x0000176c:    3b14        .;      SUBS     r3,r3,#0x14
        0x0000176e:    2401        .$      MOVS     r4,#1
        0x00001770:    409c        .@      LSLS     r4,r4,r3
        0x00001772:    4322        "C      ORRS     r2,r2,r4
        0x00001774:    4b27        'K      LDR      r3,[pc,#156] ; [0x1814] = 0x40140040
        0x00001776:    639a        .c      STR      r2,[r3,#0x38]
        0x00001778:    e04a        J.      B        0x1810 ; DrvPWM_SetTimerIO + 188
        0x0000177a:    4a27        'J      LDR      r2,[pc,#156] ; [0x1818] = 0x40040040
        0x0000177c:    6b92        .k      LDR      r2,[r2,#0x38]
        0x0000177e:    0744        D.      LSLS     r4,r0,#29
        0x00001780:    0f64        d.      LSRS     r4,r4,#29
        0x00001782:    2301        .#      MOVS     r3,#1
        0x00001784:    40a3        .@      LSLS     r3,r3,r4
        0x00001786:    431a        .C      ORRS     r2,r2,r3
        0x00001788:    4b23        #K      LDR      r3,[pc,#140] ; [0x1818] = 0x40040040
        0x0000178a:    639a        .c      STR      r2,[r3,#0x38]
        0x0000178c:    e040        @.      B        0x1810 ; DrvPWM_SetTimerIO + 188
        0x0000178e:    2204        ."      MOVS     r2,#4
        0x00001790:    4210        .B      TST      r0,r2
        0x00001792:    d008        ..      BEQ      0x17a6 ; DrvPWM_SetTimerIO + 82
        0x00001794:    4a1f        .J      LDR      r2,[pc,#124] ; [0x1814] = 0x40140040
        0x00001796:    6bd2        .k      LDR      r2,[r2,#0x3c]
        0x00001798:    1f03        ..      SUBS     r3,r0,#4
        0x0000179a:    2401        .$      MOVS     r4,#1
        0x0000179c:    409c        .@      LSLS     r4,r4,r3
        0x0000179e:    4322        "C      ORRS     r2,r2,r4
        0x000017a0:    4b1c        .K      LDR      r3,[pc,#112] ; [0x1814] = 0x40140040
        0x000017a2:    63da        .c      STR      r2,[r3,#0x3c]
        0x000017a4:    e034        4.      B        0x1810 ; DrvPWM_SetTimerIO + 188
        0x000017a6:    4a1c        .J      LDR      r2,[pc,#112] ; [0x1818] = 0x40040040
        0x000017a8:    6bd2        .k      LDR      r2,[r2,#0x3c]
        0x000017aa:    2301        .#      MOVS     r3,#1
        0x000017ac:    4083        .@      LSLS     r3,r3,r0
        0x000017ae:    431a        .C      ORRS     r2,r2,r3
        0x000017b0:    4b19        .K      LDR      r3,[pc,#100] ; [0x1818] = 0x40040040
        0x000017b2:    63da        .c      STR      r2,[r3,#0x3c]
        0x000017b4:    e02c        ,.      B        0x1810 ; DrvPWM_SetTimerIO + 188
        0x000017b6:    2210        ."      MOVS     r2,#0x10
        0x000017b8:    4210        .B      TST      r0,r2
        0x000017ba:    d016        ..      BEQ      0x17ea ; DrvPWM_SetTimerIO + 150
        0x000017bc:    2204        ."      MOVS     r2,#4
        0x000017be:    4210        .B      TST      r0,r2
        0x000017c0:    d009        ..      BEQ      0x17d6 ; DrvPWM_SetTimerIO + 130
        0x000017c2:    4a14        .J      LDR      r2,[pc,#80] ; [0x1814] = 0x40140040
        0x000017c4:    6b92        .k      LDR      r2,[r2,#0x38]
        0x000017c6:    4603        .F      MOV      r3,r0
        0x000017c8:    3b14        .;      SUBS     r3,r3,#0x14
        0x000017ca:    2401        .$      MOVS     r4,#1
        0x000017cc:    409c        .@      LSLS     r4,r4,r3
        0x000017ce:    43a2        .C      BICS     r2,r2,r4
        0x000017d0:    4b10        .K      LDR      r3,[pc,#64] ; [0x1814] = 0x40140040
        0x000017d2:    639a        .c      STR      r2,[r3,#0x38]
        0x000017d4:    e01c        ..      B        0x1810 ; DrvPWM_SetTimerIO + 188
        0x000017d6:    4a10        .J      LDR      r2,[pc,#64] ; [0x1818] = 0x40040040
        0x000017d8:    6b92        .k      LDR      r2,[r2,#0x38]
        0x000017da:    0744        D.      LSLS     r4,r0,#29
        0x000017dc:    0f64        d.      LSRS     r4,r4,#29
        0x000017de:    2301        .#      MOVS     r3,#1
        0x000017e0:    40a3        .@      LSLS     r3,r3,r4
        0x000017e2:    439a        .C      BICS     r2,r2,r3
        0x000017e4:    4b0c        .K      LDR      r3,[pc,#48] ; [0x1818] = 0x40040040
        0x000017e6:    639a        .c      STR      r2,[r3,#0x38]
        0x000017e8:    e012        ..      B        0x1810 ; DrvPWM_SetTimerIO + 188
        0x000017ea:    2204        ."      MOVS     r2,#4
        0x000017ec:    4210        .B      TST      r0,r2
        0x000017ee:    d008        ..      BEQ      0x1802 ; DrvPWM_SetTimerIO + 174
        0x000017f0:    4a08        .J      LDR      r2,[pc,#32] ; [0x1814] = 0x40140040
        0x000017f2:    6bd3        .k      LDR      r3,[r2,#0x3c]
        0x000017f4:    1f04        ..      SUBS     r4,r0,#4
        0x000017f6:    2201        ."      MOVS     r2,#1
        0x000017f8:    40a2        .@      LSLS     r2,r2,r4
        0x000017fa:    4393        .C      BICS     r3,r3,r2
        0x000017fc:    4a05        .J      LDR      r2,[pc,#20] ; [0x1814] = 0x40140040
        0x000017fe:    63d3        .c      STR      r3,[r2,#0x3c]
        0x00001800:    e006        ..      B        0x1810 ; DrvPWM_SetTimerIO + 188
        0x00001802:    4a05        .J      LDR      r2,[pc,#20] ; [0x1818] = 0x40040040
        0x00001804:    6bd2        .k      LDR      r2,[r2,#0x3c]
        0x00001806:    2301        .#      MOVS     r3,#1
        0x00001808:    4083        .@      LSLS     r3,r3,r0
        0x0000180a:    439a        .C      BICS     r2,r2,r3
        0x0000180c:    4b02        .K      LDR      r3,[pc,#8] ; [0x1818] = 0x40040040
        0x0000180e:    63da        .c      STR      r2,[r3,#0x3c]
        0x00001810:    bd10        ..      POP      {r4,pc}
    $d
        0x00001812:    0000        ..      DCW    0
        0x00001814:    40140040    @..@    DCD    1075052608
        0x00001818:    40040040    @..@    DCD    1074004032
    $t
    i.DrvSYS_Delay
    DrvSYS_Delay
        0x0000181c:    4908        .I      LDR      r1,[pc,#32] ; [0x1840] = 0x20000004
        0x0000181e:    6809        .h      LDR      r1,[r1,#0]
        0x00001820:    4341        AC      MULS     r1,r0,r1
        0x00001822:    4a08        .J      LDR      r2,[pc,#32] ; [0x1844] = 0xe000e000
        0x00001824:    6151        Qa      STR      r1,[r2,#0x14]
        0x00001826:    2100        .!      MOVS     r1,#0
        0x00001828:    6191        .a      STR      r1,[r2,#0x18]
        0x0000182a:    2105        .!      MOVS     r1,#5
        0x0000182c:    6111        .a      STR      r1,[r2,#0x10]
        0x0000182e:    bf00        ..      NOP      
        0x00001830:    4904        .I      LDR      r1,[pc,#16] ; [0x1844] = 0xe000e000
        0x00001832:    6909        .i      LDR      r1,[r1,#0x10]
        0x00001834:    2201        ."      MOVS     r2,#1
        0x00001836:    0412        ..      LSLS     r2,r2,#16
        0x00001838:    4211        .B      TST      r1,r2
        0x0000183a:    d0f9        ..      BEQ      0x1830 ; DrvSYS_Delay + 20
        0x0000183c:    4770        pG      BX       lr
    $d
        0x0000183e:    0000        ..      DCW    0
        0x00001840:    20000004    ...     DCD    536870916
        0x00001844:    e000e000    ....    DCD    3758153728
    $t
    i.DrvSYS_GetExtClockFreq
    DrvSYS_GetExtClockFreq
        0x00001848:    4800        .H      LDR      r0,[pc,#0] ; [0x184c] = 0xb71b00
        0x0000184a:    4770        pG      BX       lr
    $d
        0x0000184c:    00b71b00    ....    DCD    12000000
    $t
    i.DrvSYS_GetHCLKFreq
    DrvSYS_GetHCLKFreq
        0x00001850:    b570        p.      PUSH     {r4-r6,lr}
        0x00001852:    2500        .%      MOVS     r5,#0
        0x00001854:    4815        .H      LDR      r0,[pc,#84] ; [0x18ac] = 0x50000200
        0x00001856:    6900        .i      LDR      r0,[r0,#0x10]
        0x00001858:    0740        @.      LSLS     r0,r0,#29
        0x0000185a:    0f40        @.      LSRS     r0,r0,#29
        0x0000185c:    d101        ..      BNE      0x1862 ; DrvSYS_GetHCLKFreq + 18
        0x0000185e:    4d14        .M      LDR      r5,[pc,#80] ; [0x18b0] = 0xb71b00
        0x00001860:    e01a        ..      B        0x1898 ; DrvSYS_GetHCLKFreq + 72
        0x00001862:    4812        .H      LDR      r0,[pc,#72] ; [0x18ac] = 0x50000200
        0x00001864:    6900        .i      LDR      r0,[r0,#0x10]
        0x00001866:    0740        @.      LSLS     r0,r0,#29
        0x00001868:    0f40        @.      LSRS     r0,r0,#29
        0x0000186a:    2801        .(      CMP      r0,#1
        0x0000186c:    d101        ..      BNE      0x1872 ; DrvSYS_GetHCLKFreq + 34
        0x0000186e:    03c5        ..      LSLS     r5,r0,#15
        0x00001870:    e012        ..      B        0x1898 ; DrvSYS_GetHCLKFreq + 72
        0x00001872:    480e        .H      LDR      r0,[pc,#56] ; [0x18ac] = 0x50000200
        0x00001874:    6900        .i      LDR      r0,[r0,#0x10]
        0x00001876:    0740        @.      LSLS     r0,r0,#29
        0x00001878:    0f40        @.      LSRS     r0,r0,#29
        0x0000187a:    2802        .(      CMP      r0,#2
        0x0000187c:    d103        ..      BNE      0x1886 ; DrvSYS_GetHCLKFreq + 54
        0x0000187e:    f000f81d    ....    BL       DrvSYS_GetPLLClockFreq ; 0x18bc
        0x00001882:    4605        .F      MOV      r5,r0
        0x00001884:    e008        ..      B        0x1898 ; DrvSYS_GetHCLKFreq + 72
        0x00001886:    4809        .H      LDR      r0,[pc,#36] ; [0x18ac] = 0x50000200
        0x00001888:    6900        .i      LDR      r0,[r0,#0x10]
        0x0000188a:    0740        @.      LSLS     r0,r0,#29
        0x0000188c:    0f40        @.      LSRS     r0,r0,#29
        0x0000188e:    2803        .(      CMP      r0,#3
        0x00001890:    d101        ..      BNE      0x1896 ; DrvSYS_GetHCLKFreq + 70
        0x00001892:    4d08        .M      LDR      r5,[pc,#32] ; [0x18b4] = 0x2710
        0x00001894:    e000        ..      B        0x1898 ; DrvSYS_GetHCLKFreq + 72
        0x00001896:    4d08        .M      LDR      r5,[pc,#32] ; [0x18b8] = 0x1518000
        0x00001898:    4804        .H      LDR      r0,[pc,#16] ; [0x18ac] = 0x50000200
        0x0000189a:    6980        .i      LDR      r0,[r0,#0x18]
        0x0000189c:    0700        ..      LSLS     r0,r0,#28
        0x0000189e:    0f00        ..      LSRS     r0,r0,#28
        0x000018a0:    1c44        D.      ADDS     r4,r0,#1
        0x000018a2:    4621        !F      MOV      r1,r4
        0x000018a4:    4628        (F      MOV      r0,r5
        0x000018a6:    f7fefc91    ....    BL       __aeabi_uidiv ; 0x1cc
        0x000018aa:    bd70        p.      POP      {r4-r6,pc}
    $d
        0x000018ac:    50000200    ...P    DCD    1342177792
        0x000018b0:    00b71b00    ....    DCD    12000000
        0x000018b4:    00002710    .'..    DCD    10000
        0x000018b8:    01518000    ..Q.    DCD    22118400
    $t
    i.DrvSYS_GetPLLClockFreq
    DrvSYS_GetPLLClockFreq
        0x000018bc:    b57f        ..      PUSH     {r0-r6,lr}
        0x000018be:    2500        .%      MOVS     r5,#0
        0x000018c0:    4b17        .K      LDR      r3,[pc,#92] ; [0x1920] = 0x4224
        0x000018c2:    cb0f        ..      LDM      r3,{r0-r3}
        0x000018c4:    466c        lF      MOV      r4,sp
        0x000018c6:    c40f        ..      STM      r4!,{r0-r3}
        0x000018c8:    4816        .H      LDR      r0,[pc,#88] ; [0x1924] = 0x50000200
        0x000018ca:    6a00        .j      LDR      r0,[r0,#0x20]
        0x000018cc:    0300        ..      LSLS     r0,r0,#12
        0x000018ce:    0fc0        ..      LSRS     r0,r0,#31
        0x000018d0:    d001        ..      BEQ      0x18d6 ; DrvSYS_GetPLLClockFreq + 26
        0x000018d2:    4c15        .L      LDR      r4,[pc,#84] ; [0x1928] = 0x1518000
        0x000018d4:    e000        ..      B        0x18d8 ; DrvSYS_GetPLLClockFreq + 28
        0x000018d6:    4c15        .L      LDR      r4,[pc,#84] ; [0x192c] = 0xb71b00
        0x000018d8:    4812        .H      LDR      r0,[pc,#72] ; [0x1924] = 0x50000200
        0x000018da:    6a00        .j      LDR      r0,[r0,#0x20]
        0x000018dc:    03c0        ..      LSLS     r0,r0,#15
        0x000018de:    0fc0        ..      LSRS     r0,r0,#31
        0x000018e0:    d001        ..      BEQ      0x18e6 ; DrvSYS_GetPLLClockFreq + 42
        0x000018e2:    2500        .%      MOVS     r5,#0
        0x000018e4:    e019        ..      B        0x191a ; DrvSYS_GetPLLClockFreq + 94
        0x000018e6:    4a0f        .J      LDR      r2,[pc,#60] ; [0x1924] = 0x50000200
        0x000018e8:    6a12        .j      LDR      r2,[r2,#0x20]
        0x000018ea:    0492        ..      LSLS     r2,r2,#18
        0x000018ec:    0ed2        ..      LSRS     r2,r2,#27
        0x000018ee:    1c91        ..      ADDS     r1,r2,#2
        0x000018f0:    4a0c        .J      LDR      r2,[pc,#48] ; [0x1924] = 0x50000200
        0x000018f2:    6a12        .j      LDR      r2,[r2,#0x20]
        0x000018f4:    05d2        ..      LSLS     r2,r2,#23
        0x000018f6:    0dd2        ..      LSRS     r2,r2,#23
        0x000018f8:    1c92        ..      ADDS     r2,r2,#2
        0x000018fa:    4362        bC      MULS     r2,r4,r2
        0x000018fc:    4610        .F      MOV      r0,r2
        0x000018fe:    f7fefc65    ..e.    BL       __aeabi_uidiv ; 0x1cc
        0x00001902:    4606        .F      MOV      r6,r0
        0x00001904:    4807        .H      LDR      r0,[pc,#28] ; [0x1924] = 0x50000200
        0x00001906:    6a00        .j      LDR      r0,[r0,#0x20]
        0x00001908:    0400        ..      LSLS     r0,r0,#16
        0x0000190a:    0f80        ..      LSRS     r0,r0,#30
        0x0000190c:    0080        ..      LSLS     r0,r0,#2
        0x0000190e:    466a        jF      MOV      r2,sp
        0x00001910:    5811        .X      LDR      r1,[r2,r0]
        0x00001912:    4630        0F      MOV      r0,r6
        0x00001914:    f7fefc5a    ..Z.    BL       __aeabi_uidiv ; 0x1cc
        0x00001918:    4605        .F      MOV      r5,r0
        0x0000191a:    4628        (F      MOV      r0,r5
        0x0000191c:    b004        ..      ADD      sp,sp,#0x10
        0x0000191e:    bd70        p.      POP      {r4-r6,pc}
    $d
        0x00001920:    00004224    $B..    DCD    16932
        0x00001924:    50000200    ...P    DCD    1342177792
        0x00001928:    01518000    ..Q.    DCD    22118400
        0x0000192c:    00b71b00    ....    DCD    12000000
    $t
    i.DrvSYS_GetPLLContent
    DrvSYS_GetPLLContent
        0x00001930:    b5f3        ..      PUSH     {r0,r1,r4-r7,lr}
        0x00001932:    b083        ..      SUB      sp,sp,#0xc
        0x00001934:    460c        .F      MOV      r4,r1
        0x00001936:    4827        'H      LDR      r0,[pc,#156] ; [0x19d4] = 0xb71b00
        0x00001938:    9002        ..      STR      r0,[sp,#8]
        0x0000193a:    2000        .       MOVS     r0,#0
        0x0000193c:    9001        ..      STR      r0,[sp,#4]
        0x0000193e:    4826        &H      LDR      r0,[pc,#152] ; [0x19d8] = 0xbebc200
        0x00001940:    4284        .B      CMP      r4,r0
        0x00001942:    d804        ..      BHI      0x194e ; DrvSYS_GetPLLContent + 30
        0x00001944:    1040        @.      ASRS     r0,r0,#1
        0x00001946:    4284        .B      CMP      r4,r0
        0x00001948:    d901        ..      BLS      0x194e ; DrvSYS_GetPLLContent + 30
        0x0000194a:    2700        .'      MOVS     r7,#0
        0x0000194c:    e014        ..      B        0x1978 ; DrvSYS_GetPLLContent + 72
        0x0000194e:    4823        #H      LDR      r0,[pc,#140] ; [0x19dc] = 0x5f5e100
        0x00001950:    4284        .B      CMP      r4,r0
        0x00001952:    d805        ..      BHI      0x1960 ; DrvSYS_GetPLLContent + 48
        0x00001954:    1040        @.      ASRS     r0,r0,#1
        0x00001956:    4284        .B      CMP      r4,r0
        0x00001958:    d902        ..      BLS      0x1960 ; DrvSYS_GetPLLContent + 48
        0x0000195a:    2701        .'      MOVS     r7,#1
        0x0000195c:    0064        d.      LSLS     r4,r4,#1
        0x0000195e:    e00b        ..      B        0x1978 ; DrvSYS_GetPLLContent + 72
        0x00001960:    481f        .H      LDR      r0,[pc,#124] ; [0x19e0] = 0x2faf080
        0x00001962:    4284        .B      CMP      r4,r0
        0x00001964:    d805        ..      BHI      0x1972 ; DrvSYS_GetPLLContent + 66
        0x00001966:    1040        @.      ASRS     r0,r0,#1
        0x00001968:    4284        .B      CMP      r4,r0
        0x0000196a:    d302        ..      BCC      0x1972 ; DrvSYS_GetPLLContent + 66
        0x0000196c:    2703        .'      MOVS     r7,#3
        0x0000196e:    00a4        ..      LSLS     r4,r4,#2
        0x00001970:    e002        ..      B        0x1978 ; DrvSYS_GetPLLContent + 72
        0x00001972:    481c        .H      LDR      r0,[pc,#112] ; [0x19e4] = 0xc22e
        0x00001974:    b005        ..      ADD      sp,sp,#0x14
        0x00001976:    bdf0        ..      POP      {r4-r7,pc}
        0x00001978:    9803        ..      LDR      r0,[sp,#0xc]
        0x0000197a:    2800        .(      CMP      r0,#0
        0x0000197c:    d102        ..      BNE      0x1984 ; DrvSYS_GetPLLContent + 84
        0x0000197e:    4815        .H      LDR      r0,[pc,#84] ; [0x19d4] = 0xb71b00
        0x00001980:    9002        ..      STR      r0,[sp,#8]
        0x00001982:    e004        ..      B        0x198e ; DrvSYS_GetPLLContent + 94
        0x00001984:    9803        ..      LDR      r0,[sp,#0xc]
        0x00001986:    2801        .(      CMP      r0,#1
        0x00001988:    d101        ..      BNE      0x198e ; DrvSYS_GetPLLContent + 94
        0x0000198a:    4817        .H      LDR      r0,[pc,#92] ; [0x19e8] = 0x1518000
        0x0000198c:    9002        ..      STR      r0,[sp,#8]
        0x0000198e:    4917        .I      LDR      r1,[pc,#92] ; [0x19ec] = 0xf4240
        0x00001990:    4620         F      MOV      r0,r4
        0x00001992:    f7fefc1b    ....    BL       __aeabi_uidiv ; 0x1cc
        0x00001996:    4606        .F      MOV      r6,r0
        0x00001998:    4914        .I      LDR      r1,[pc,#80] ; [0x19ec] = 0xf4240
        0x0000199a:    9802        ..      LDR      r0,[sp,#8]
        0x0000199c:    f7fefc16    ....    BL       __aeabi_uidiv ; 0x1cc
        0x000019a0:    4605        .F      MOV      r5,r0
        0x000019a2:    e00c        ..      B        0x19be ; DrvSYS_GetPLLContent + 142
        0x000019a4:    07e8        ..      LSLS     r0,r5,#31
        0x000019a6:    0fc0        ..      LSRS     r0,r0,#31
        0x000019a8:    d106        ..      BNE      0x19b8 ; DrvSYS_GetPLLContent + 136
        0x000019aa:    07f0        ..      LSLS     r0,r6,#31
        0x000019ac:    0fc0        ..      LSRS     r0,r0,#31
        0x000019ae:    d103        ..      BNE      0x19b8 ; DrvSYS_GetPLLContent + 136
        0x000019b0:    2d02        .-      CMP      r5,#2
        0x000019b2:    d001        ..      BEQ      0x19b8 ; DrvSYS_GetPLLContent + 136
        0x000019b4:    2e02        ..      CMP      r6,#2
        0x000019b6:    d100        ..      BNE      0x19ba ; DrvSYS_GetPLLContent + 138
        0x000019b8:    e002        ..      B        0x19c0 ; DrvSYS_GetPLLContent + 144
        0x000019ba:    086d        m.      LSRS     r5,r5,#1
        0x000019bc:    0876        v.      LSRS     r6,r6,#1
        0x000019be:    e7f1        ..      B        0x19a4 ; DrvSYS_GetPLLContent + 116
        0x000019c0:    bf00        ..      NOP      
        0x000019c2:    03b8        ..      LSLS     r0,r7,#14
        0x000019c4:    1ea9        ..      SUBS     r1,r5,#2
        0x000019c6:    0249        I.      LSLS     r1,r1,#9
        0x000019c8:    4308        .C      ORRS     r0,r0,r1
        0x000019ca:    1eb1        ..      SUBS     r1,r6,#2
        0x000019cc:    4308        .C      ORRS     r0,r0,r1
        0x000019ce:    9001        ..      STR      r0,[sp,#4]
        0x000019d0:    9801        ..      LDR      r0,[sp,#4]
        0x000019d2:    e7cf        ..      B        0x1974 ; DrvSYS_GetPLLContent + 68
    $d
        0x000019d4:    00b71b00    ....    DCD    12000000
        0x000019d8:    0bebc200    ....    DCD    200000000
        0x000019dc:    05f5e100    ....    DCD    100000000
        0x000019e0:    02faf080    ....    DCD    50000000
        0x000019e4:    0000c22e    ....    DCD    49710
        0x000019e8:    01518000    ..Q.    DCD    22118400
        0x000019ec:    000f4240    @B..    DCD    1000000
    $t
    i.DrvSYS_IsProtectedRegLocked
    DrvSYS_IsProtectedRegLocked
        0x000019f0:    4802        .H      LDR      r0,[pc,#8] ; [0x19fc] = 0x50000100
        0x000019f2:    6800        .h      LDR      r0,[r0,#0]
        0x000019f4:    07c0        ..      LSLS     r0,r0,#31
        0x000019f6:    0fc0        ..      LSRS     r0,r0,#31
        0x000019f8:    4770        pG      BX       lr
    $d
        0x000019fa:    0000        ..      DCW    0
        0x000019fc:    50000100    ...P    DCD    1342177536
    $t
    i.DrvSYS_Open
    DrvSYS_Open
        0x00001a00:    b5f8        ..      PUSH     {r3-r7,lr}
        0x00001a02:    4605        .F      MOV      r5,r0
        0x00001a04:    2600        .&      MOVS     r6,#0
        0x00001a06:    4825        %H      LDR      r0,[pc,#148] ; [0x1a9c] = 0x2faf080
        0x00001a08:    4285        .B      CMP      r5,r0
        0x00001a0a:    d802        ..      BHI      0x1a12 ; DrvSYS_Open + 18
        0x00001a0c:    1040        @.      ASRS     r0,r0,#1
        0x00001a0e:    4285        .B      CMP      r5,r0
        0x00001a10:    d201        ..      BCS      0x1a16 ; DrvSYS_Open + 22
        0x00001a12:    4823        #H      LDR      r0,[pc,#140] ; [0x1aa0] = 0xffff9606
        0x00001a14:    bdf8        ..      POP      {r3-r7,pc}
        0x00001a16:    f7ffffeb    ....    BL       DrvSYS_IsProtectedRegLocked ; 0x19f0
        0x00001a1a:    2800        .(      CMP      r0,#0
        0x00001a1c:    d102        ..      BNE      0x1a24 ; DrvSYS_Open + 36
        0x00001a1e:    4820         H      LDR      r0,[pc,#128] ; [0x1aa0] = 0xffff9606
        0x00001a20:    1c40        @.      ADDS     r0,r0,#1
        0x00001a22:    e7f7        ..      B        0x1a14 ; DrvSYS_Open + 20
        0x00001a24:    481f        .H      LDR      r0,[pc,#124] ; [0x1aa4] = 0x50000200
        0x00001a26:    6a00        .j      LDR      r0,[r0,#0x20]
        0x00001a28:    0300        ..      LSLS     r0,r0,#12
        0x00001a2a:    0fc0        ..      LSRS     r0,r0,#31
        0x00001a2c:    d108        ..      BNE      0x1a40 ; DrvSYS_Open + 64
        0x00001a2e:    481d        .H      LDR      r0,[pc,#116] ; [0x1aa4] = 0x50000200
        0x00001a30:    6800        .h      LDR      r0,[r0,#0]
        0x00001a32:    0840        @.      LSRS     r0,r0,#1
        0x00001a34:    0040        @.      LSLS     r0,r0,#1
        0x00001a36:    1c40        @.      ADDS     r0,r0,#1
        0x00001a38:    491a        .I      LDR      r1,[pc,#104] ; [0x1aa4] = 0x50000200
        0x00001a3a:    6008        .`      STR      r0,[r1,#0]
        0x00001a3c:    2600        .&      MOVS     r6,#0
        0x00001a3e:    e007        ..      B        0x1a50 ; DrvSYS_Open + 80
        0x00001a40:    4818        .H      LDR      r0,[pc,#96] ; [0x1aa4] = 0x50000200
        0x00001a42:    6800        .h      LDR      r0,[r0,#0]
        0x00001a44:    2104        .!      MOVS     r1,#4
        0x00001a46:    4388        .C      BICS     r0,r0,r1
        0x00001a48:    1d00        ..      ADDS     r0,r0,#4
        0x00001a4a:    4916        .I      LDR      r1,[pc,#88] ; [0x1aa4] = 0x50000200
        0x00001a4c:    6008        .`      STR      r0,[r1,#0]
        0x00001a4e:    2601        .&      MOVS     r6,#1
        0x00001a50:    4629        )F      MOV      r1,r5
        0x00001a52:    4630        0F      MOV      r0,r6
        0x00001a54:    f7ffff6c    ..l.    BL       DrvSYS_GetPLLContent ; 0x1930
        0x00001a58:    4607        .F      MOV      r7,r0
        0x00001a5a:    2400        .$      MOVS     r4,#0
        0x00001a5c:    e000        ..      B        0x1a60 ; DrvSYS_Open + 96
        0x00001a5e:    1c64        d.      ADDS     r4,r4,#1
        0x00001a60:    4811        .H      LDR      r0,[pc,#68] ; [0x1aa8] = 0x2710
        0x00001a62:    4284        .B      CMP      r4,r0
        0x00001a64:    d3fb        ..      BCC      0x1a5e ; DrvSYS_Open + 94
        0x00001a66:    4638        8F      MOV      r0,r7
        0x00001a68:    f000f8fc    ....    BL       DrvSYS_SetPLLContent ; 0x1c64
        0x00001a6c:    480d        .H      LDR      r0,[pc,#52] ; [0x1aa4] = 0x50000200
        0x00001a6e:    6a00        .j      LDR      r0,[r0,#0x20]
        0x00001a70:    2101        .!      MOVS     r1,#1
        0x00001a72:    0489        ..      LSLS     r1,r1,#18
        0x00001a74:    4388        .C      BICS     r0,r0,r1
        0x00001a76:    490b        .I      LDR      r1,[pc,#44] ; [0x1aa4] = 0x50000200
        0x00001a78:    6208        .b      STR      r0,[r1,#0x20]
        0x00001a7a:    4608        .F      MOV      r0,r1
        0x00001a7c:    6a00        .j      LDR      r0,[r0,#0x20]
        0x00001a7e:    01c9        ..      LSLS     r1,r1,#7
        0x00001a80:    4388        .C      BICS     r0,r0,r1
        0x00001a82:    4908        .I      LDR      r1,[pc,#32] ; [0x1aa4] = 0x50000200
        0x00001a84:    6208        .b      STR      r0,[r1,#0x20]
        0x00001a86:    2400        .$      MOVS     r4,#0
        0x00001a88:    e000        ..      B        0x1a8c ; DrvSYS_Open + 140
        0x00001a8a:    1c64        d.      ADDS     r4,r4,#1
        0x00001a8c:    4806        .H      LDR      r0,[pc,#24] ; [0x1aa8] = 0x2710
        0x00001a8e:    4284        .B      CMP      r4,r0
        0x00001a90:    d3fb        ..      BCC      0x1a8a ; DrvSYS_Open + 138
        0x00001a92:    2002        .       MOVS     r0,#2
        0x00001a94:    f000f80a    ....    BL       DrvSYS_SelectHCLKSource ; 0x1aac
        0x00001a98:    2000        .       MOVS     r0,#0
        0x00001a9a:    e7bb        ..      B        0x1a14 ; DrvSYS_Open + 20
    $d
        0x00001a9c:    02faf080    ....    DCD    50000000
        0x00001aa0:    ffff9606    ....    DCD    4294940166
        0x00001aa4:    50000200    ...P    DCD    1342177792
        0x00001aa8:    00002710    .'..    DCD    10000
    $t
    i.DrvSYS_SelectHCLKSource
    DrvSYS_SelectHCLKSource
        0x00001aac:    b510        ..      PUSH     {r4,lr}
        0x00001aae:    4604        .F      MOV      r4,r0
        0x00001ab0:    2c07        .,      CMP      r4,#7
        0x00001ab2:    dc03        ..      BGT      0x1abc ; DrvSYS_SelectHCLKSource + 16
        0x00001ab4:    2c03        .,      CMP      r4,#3
        0x00001ab6:    dd03        ..      BLE      0x1ac0 ; DrvSYS_SelectHCLKSource + 20
        0x00001ab8:    2c07        .,      CMP      r4,#7
        0x00001aba:    da01        ..      BGE      0x1ac0 ; DrvSYS_SelectHCLKSource + 20
        0x00001abc:    4807        .H      LDR      r0,[pc,#28] ; [0x1adc] = 0xffff9603
        0x00001abe:    bd10        ..      POP      {r4,pc}
        0x00001ac0:    4807        .H      LDR      r0,[pc,#28] ; [0x1ae0] = 0x50000200
        0x00001ac2:    6900        .i      LDR      r0,[r0,#0x10]
        0x00001ac4:    08c0        ..      LSRS     r0,r0,#3
        0x00001ac6:    00c0        ..      LSLS     r0,r0,#3
        0x00001ac8:    0761        a.      LSLS     r1,r4,#29
        0x00001aca:    0f49        I.      LSRS     r1,r1,#29
        0x00001acc:    4308        .C      ORRS     r0,r0,r1
        0x00001ace:    4904        .I      LDR      r1,[pc,#16] ; [0x1ae0] = 0x50000200
        0x00001ad0:    6108        .a      STR      r0,[r1,#0x10]
        0x00001ad2:    f001fed7    ....    BL       SystemCoreClockUpdate ; 0x3884
        0x00001ad6:    2000        .       MOVS     r0,#0
        0x00001ad8:    e7f1        ..      B        0x1abe ; DrvSYS_SelectHCLKSource + 18
    $d
        0x00001ada:    0000        ..      DCW    0
        0x00001adc:    ffff9603    ....    DCD    4294940163
        0x00001ae0:    50000200    ...P    DCD    1342177792
    $t
    i.DrvSYS_SelectIPClockSource
    DrvSYS_SelectIPClockSource
        0x00001ae4:    b510        ..      PUSH     {r4,lr}
        0x00001ae6:    4602        .F      MOV      r2,r0
        0x00001ae8:    0013        ..      MOVS     r3,r2
        0x00001aea:    f002f963    ..c.    BL       __ARM_common_switch8 ; 0x3db4
    $d
        0x00001aee:    970d        ..      DCW    38669
        0x00001af0:    65727f8c    ..re    DCD    1702002572
        0x00001af4:    333e4b58    XK>3    DCD    859720536
        0x00001af8:    1d280813    ..(.    DCD    489162771
        0x00001afc:    00a1        ..      DCW    161
    $t
        0x00001afe:    484f        OH      LDR      r0,[pc,#316] ; [0x1c3c] = 0x50000200
        0x00001b00:    69c0        .i      LDR      r0,[r0,#0x1c]
        0x00001b02:    230c        .#      MOVS     r3,#0xc
        0x00001b04:    4398        .C      BICS     r0,r0,r3
        0x00001b06:    008b        ..      LSLS     r3,r1,#2
        0x00001b08:    240c        .$      MOVS     r4,#0xc
        0x00001b0a:    4023        #@      ANDS     r3,r3,r4
        0x00001b0c:    4318        .C      ORRS     r0,r0,r3
        0x00001b0e:    4b4b        KK      LDR      r3,[pc,#300] ; [0x1c3c] = 0x50000200
        0x00001b10:    61d8        .a      STR      r0,[r3,#0x1c]
        0x00001b12:    e08f        ..      B        0x1c34 ; DrvSYS_SelectIPClockSource + 336
        0x00001b14:    4849        IH      LDR      r0,[pc,#292] ; [0x1c3c] = 0x50000200
        0x00001b16:    69c0        .i      LDR      r0,[r0,#0x1c]
        0x00001b18:    0880        ..      LSRS     r0,r0,#2
        0x00001b1a:    0080        ..      LSLS     r0,r0,#2
        0x00001b1c:    078b        ..      LSLS     r3,r1,#30
        0x00001b1e:    0f9b        ..      LSRS     r3,r3,#30
        0x00001b20:    4318        .C      ORRS     r0,r0,r3
        0x00001b22:    4b46        FK      LDR      r3,[pc,#280] ; [0x1c3c] = 0x50000200
        0x00001b24:    61d8        .a      STR      r0,[r3,#0x1c]
        0x00001b26:    e085        ..      B        0x1c34 ; DrvSYS_SelectIPClockSource + 336
        0x00001b28:    4844        DH      LDR      r0,[pc,#272] ; [0x1c3c] = 0x50000200
        0x00001b2a:    69c0        .i      LDR      r0,[r0,#0x1c]
        0x00001b2c:    23c0        .#      MOVS     r3,#0xc0
        0x00001b2e:    4398        .C      BICS     r0,r0,r3
        0x00001b30:    018b        ..      LSLS     r3,r1,#6
        0x00001b32:    24c0        .$      MOVS     r4,#0xc0
        0x00001b34:    4023        #@      ANDS     r3,r3,r4
        0x00001b36:    4318        .C      ORRS     r0,r0,r3
        0x00001b38:    4b40        @K      LDR      r3,[pc,#256] ; [0x1c3c] = 0x50000200
        0x00001b3a:    61d8        .a      STR      r0,[r3,#0x1c]
        0x00001b3c:    e07a        z.      B        0x1c34 ; DrvSYS_SelectIPClockSource + 336
        0x00001b3e:    483f        ?H      LDR      r0,[pc,#252] ; [0x1c3c] = 0x50000200
        0x00001b40:    69c0        .i      LDR      r0,[r0,#0x1c]
        0x00001b42:    2330        0#      MOVS     r3,#0x30
        0x00001b44:    4398        .C      BICS     r0,r0,r3
        0x00001b46:    010b        ..      LSLS     r3,r1,#4
        0x00001b48:    2430        0$      MOVS     r4,#0x30
        0x00001b4a:    4023        #@      ANDS     r3,r3,r4
        0x00001b4c:    4318        .C      ORRS     r0,r0,r3
        0x00001b4e:    4b3b        ;K      LDR      r3,[pc,#236] ; [0x1c3c] = 0x50000200
        0x00001b50:    61d8        .a      STR      r0,[r3,#0x1c]
        0x00001b52:    e06f        o.      B        0x1c34 ; DrvSYS_SelectIPClockSource + 336
        0x00001b54:    4839        9H      LDR      r0,[pc,#228] ; [0x1c3c] = 0x50000200
        0x00001b56:    6940        @i      LDR      r0,[r0,#0x14]
        0x00001b58:    0080        ..      LSLS     r0,r0,#2
        0x00001b5a:    0880        ..      LSRS     r0,r0,#2
        0x00001b5c:    078b        ..      LSLS     r3,r1,#30
        0x00001b5e:    0f9b        ..      LSRS     r3,r3,#30
        0x00001b60:    079b        ..      LSLS     r3,r3,#30
        0x00001b62:    4318        .C      ORRS     r0,r0,r3
        0x00001b64:    4b35        5K      LDR      r3,[pc,#212] ; [0x1c3c] = 0x50000200
        0x00001b66:    6158        Xa      STR      r0,[r3,#0x14]
        0x00001b68:    e064        d.      B        0x1c34 ; DrvSYS_SelectIPClockSource + 336
        0x00001b6a:    4834        4H      LDR      r0,[pc,#208] ; [0x1c3c] = 0x50000200
        0x00001b6c:    6940        @i      LDR      r0,[r0,#0x14]
        0x00001b6e:    2303        .#      MOVS     r3,#3
        0x00001b70:    071b        ..      LSLS     r3,r3,#28
        0x00001b72:    4398        .C      BICS     r0,r0,r3
        0x00001b74:    070b        ..      LSLS     r3,r1,#28
        0x00001b76:    2403        .$      MOVS     r4,#3
        0x00001b78:    0724        $.      LSLS     r4,r4,#28
        0x00001b7a:    4023        #@      ANDS     r3,r3,r4
        0x00001b7c:    4318        .C      ORRS     r0,r0,r3
        0x00001b7e:    4b2f        /K      LDR      r3,[pc,#188] ; [0x1c3c] = 0x50000200
        0x00001b80:    6158        Xa      STR      r0,[r3,#0x14]
        0x00001b82:    e057        W.      B        0x1c34 ; DrvSYS_SelectIPClockSource + 336
        0x00001b84:    482d        -H      LDR      r0,[pc,#180] ; [0x1c3c] = 0x50000200
        0x00001b86:    6940        @i      LDR      r0,[r0,#0x14]
        0x00001b88:    2303        .#      MOVS     r3,#3
        0x00001b8a:    061b        ..      LSLS     r3,r3,#24
        0x00001b8c:    4398        .C      BICS     r0,r0,r3
        0x00001b8e:    060b        ..      LSLS     r3,r1,#24
        0x00001b90:    2403        .$      MOVS     r4,#3
        0x00001b92:    0624        $.      LSLS     r4,r4,#24
        0x00001b94:    4023        #@      ANDS     r3,r3,r4
        0x00001b96:    4318        .C      ORRS     r0,r0,r3
        0x00001b98:    4b28        (K      LDR      r3,[pc,#160] ; [0x1c3c] = 0x50000200
        0x00001b9a:    6158        Xa      STR      r0,[r3,#0x14]
        0x00001b9c:    e04a        J.      B        0x1c34 ; DrvSYS_SelectIPClockSource + 336
        0x00001b9e:    4827        'H      LDR      r0,[pc,#156] ; [0x1c3c] = 0x50000200
        0x00001ba0:    6940        @i      LDR      r0,[r0,#0x14]
        0x00001ba2:    2307        .#      MOVS     r3,#7
        0x00001ba4:    051b        ..      LSLS     r3,r3,#20
        0x00001ba6:    4398        .C      BICS     r0,r0,r3
        0x00001ba8:    050b        ..      LSLS     r3,r1,#20
        0x00001baa:    2407        .$      MOVS     r4,#7
        0x00001bac:    0524        $.      LSLS     r4,r4,#20
        0x00001bae:    4023        #@      ANDS     r3,r3,r4
        0x00001bb0:    4318        .C      ORRS     r0,r0,r3
        0x00001bb2:    4b22        "K      LDR      r3,[pc,#136] ; [0x1c3c] = 0x50000200
        0x00001bb4:    6158        Xa      STR      r0,[r3,#0x14]
        0x00001bb6:    e03d        =.      B        0x1c34 ; DrvSYS_SelectIPClockSource + 336
        0x00001bb8:    4820         H      LDR      r0,[pc,#128] ; [0x1c3c] = 0x50000200
        0x00001bba:    6940        @i      LDR      r0,[r0,#0x14]
        0x00001bbc:    2307        .#      MOVS     r3,#7
        0x00001bbe:    041b        ..      LSLS     r3,r3,#16
        0x00001bc0:    4398        .C      BICS     r0,r0,r3
        0x00001bc2:    040b        ..      LSLS     r3,r1,#16
        0x00001bc4:    2407        .$      MOVS     r4,#7
        0x00001bc6:    0424        $.      LSLS     r4,r4,#16
        0x00001bc8:    4023        #@      ANDS     r3,r3,r4
        0x00001bca:    4318        .C      ORRS     r0,r0,r3
        0x00001bcc:    4b1b        .K      LDR      r3,[pc,#108] ; [0x1c3c] = 0x50000200
        0x00001bce:    6158        Xa      STR      r0,[r3,#0x14]
        0x00001bd0:    e030        0.      B        0x1c34 ; DrvSYS_SelectIPClockSource + 336
        0x00001bd2:    481a        .H      LDR      r0,[pc,#104] ; [0x1c3c] = 0x50000200
        0x00001bd4:    6940        @i      LDR      r0,[r0,#0x14]
        0x00001bd6:    2307        .#      MOVS     r3,#7
        0x00001bd8:    031b        ..      LSLS     r3,r3,#12
        0x00001bda:    4398        .C      BICS     r0,r0,r3
        0x00001bdc:    030b        ..      LSLS     r3,r1,#12
        0x00001bde:    2407        .$      MOVS     r4,#7
        0x00001be0:    0324        $.      LSLS     r4,r4,#12
        0x00001be2:    4023        #@      ANDS     r3,r3,r4
        0x00001be4:    4318        .C      ORRS     r0,r0,r3
        0x00001be6:    4b15        .K      LDR      r3,[pc,#84] ; [0x1c3c] = 0x50000200
        0x00001be8:    6158        Xa      STR      r0,[r3,#0x14]
        0x00001bea:    e023        #.      B        0x1c34 ; DrvSYS_SelectIPClockSource + 336
        0x00001bec:    4813        .H      LDR      r0,[pc,#76] ; [0x1c3c] = 0x50000200
        0x00001bee:    6940        @i      LDR      r0,[r0,#0x14]
        0x00001bf0:    2307        .#      MOVS     r3,#7
        0x00001bf2:    021b        ..      LSLS     r3,r3,#8
        0x00001bf4:    4398        .C      BICS     r0,r0,r3
        0x00001bf6:    020b        ..      LSLS     r3,r1,#8
        0x00001bf8:    2407        .$      MOVS     r4,#7
        0x00001bfa:    0224        $.      LSLS     r4,r4,#8
        0x00001bfc:    4023        #@      ANDS     r3,r3,r4
        0x00001bfe:    4318        .C      ORRS     r0,r0,r3
        0x00001c00:    4b0e        .K      LDR      r3,[pc,#56] ; [0x1c3c] = 0x50000200
        0x00001c02:    6158        Xa      STR      r0,[r3,#0x14]
        0x00001c04:    e016        ..      B        0x1c34 ; DrvSYS_SelectIPClockSource + 336
        0x00001c06:    480d        .H      LDR      r0,[pc,#52] ; [0x1c3c] = 0x50000200
        0x00001c08:    6940        @i      LDR      r0,[r0,#0x14]
        0x00001c0a:    230c        .#      MOVS     r3,#0xc
        0x00001c0c:    4398        .C      BICS     r0,r0,r3
        0x00001c0e:    008b        ..      LSLS     r3,r1,#2
        0x00001c10:    240c        .$      MOVS     r4,#0xc
        0x00001c12:    4023        #@      ANDS     r3,r3,r4
        0x00001c14:    4318        .C      ORRS     r0,r0,r3
        0x00001c16:    4b09        .K      LDR      r3,[pc,#36] ; [0x1c3c] = 0x50000200
        0x00001c18:    6158        Xa      STR      r0,[r3,#0x14]
        0x00001c1a:    e00b        ..      B        0x1c34 ; DrvSYS_SelectIPClockSource + 336
        0x00001c1c:    4807        .H      LDR      r0,[pc,#28] ; [0x1c3c] = 0x50000200
        0x00001c1e:    6940        @i      LDR      r0,[r0,#0x14]
        0x00001c20:    0880        ..      LSRS     r0,r0,#2
        0x00001c22:    0080        ..      LSLS     r0,r0,#2
        0x00001c24:    078b        ..      LSLS     r3,r1,#30
        0x00001c26:    0f9b        ..      LSRS     r3,r3,#30
        0x00001c28:    4318        .C      ORRS     r0,r0,r3
        0x00001c2a:    4b04        .K      LDR      r3,[pc,#16] ; [0x1c3c] = 0x50000200
        0x00001c2c:    6158        Xa      STR      r0,[r3,#0x14]
        0x00001c2e:    e001        ..      B        0x1c34 ; DrvSYS_SelectIPClockSource + 336
        0x00001c30:    4803        .H      LDR      r0,[pc,#12] ; [0x1c40] = 0xffff9604
        0x00001c32:    bd10        ..      POP      {r4,pc}
        0x00001c34:    bf00        ..      NOP      
        0x00001c36:    2000        .       MOVS     r0,#0
        0x00001c38:    e7fb        ..      B        0x1c32 ; DrvSYS_SelectIPClockSource + 334
    $d
        0x00001c3a:    0000        ..      DCW    0
        0x00001c3c:    50000200    ...P    DCD    1342177792
        0x00001c40:    ffff9604    ....    DCD    4294940164
    $t
    i.DrvSYS_SelectPLLSource
    DrvSYS_SelectPLLSource
        0x00001c44:    4906        .I      LDR      r1,[pc,#24] ; [0x1c60] = 0x50000200
        0x00001c46:    6a09        .j      LDR      r1,[r1,#0x20]
        0x00001c48:    2201        ."      MOVS     r2,#1
        0x00001c4a:    04d2        ..      LSLS     r2,r2,#19
        0x00001c4c:    4391        .C      BICS     r1,r1,r2
        0x00001c4e:    04c2        ..      LSLS     r2,r0,#19
        0x00001c50:    2301        .#      MOVS     r3,#1
        0x00001c52:    04db        ..      LSLS     r3,r3,#19
        0x00001c54:    401a        .@      ANDS     r2,r2,r3
        0x00001c56:    4311        .C      ORRS     r1,r1,r2
        0x00001c58:    4a01        .J      LDR      r2,[pc,#4] ; [0x1c60] = 0x50000200
        0x00001c5a:    6211        .b      STR      r1,[r2,#0x20]
        0x00001c5c:    4770        pG      BX       lr
    $d
        0x00001c5e:    0000        ..      DCW    0
        0x00001c60:    50000200    ...P    DCD    1342177792
    $t
    i.DrvSYS_SetPLLContent
    DrvSYS_SetPLLContent
        0x00001c64:    4911        .I      LDR      r1,[pc,#68] ; [0x1cac] = 0x50000200
        0x00001c66:    6a09        .j      LDR      r1,[r1,#0x20]
        0x00001c68:    0a49        I.      LSRS     r1,r1,#9
        0x00001c6a:    0249        I.      LSLS     r1,r1,#9
        0x00001c6c:    05c2        ..      LSLS     r2,r0,#23
        0x00001c6e:    0dd2        ..      LSRS     r2,r2,#23
        0x00001c70:    4311        .C      ORRS     r1,r1,r2
        0x00001c72:    4a0e        .J      LDR      r2,[pc,#56] ; [0x1cac] = 0x50000200
        0x00001c74:    6211        .b      STR      r1,[r2,#0x20]
        0x00001c76:    4611        .F      MOV      r1,r2
        0x00001c78:    6a09        .j      LDR      r1,[r1,#0x20]
        0x00001c7a:    221f        ."      MOVS     r2,#0x1f
        0x00001c7c:    0252        R.      LSLS     r2,r2,#9
        0x00001c7e:    4391        .C      BICS     r1,r1,r2
        0x00001c80:    0a42        B.      LSRS     r2,r0,#9
        0x00001c82:    0252        R.      LSLS     r2,r2,#9
        0x00001c84:    231f        .#      MOVS     r3,#0x1f
        0x00001c86:    025b        [.      LSLS     r3,r3,#9
        0x00001c88:    401a        .@      ANDS     r2,r2,r3
        0x00001c8a:    4311        .C      ORRS     r1,r1,r2
        0x00001c8c:    4a07        .J      LDR      r2,[pc,#28] ; [0x1cac] = 0x50000200
        0x00001c8e:    6211        .b      STR      r1,[r2,#0x20]
        0x00001c90:    4611        .F      MOV      r1,r2
        0x00001c92:    6a09        .j      LDR      r1,[r1,#0x20]
        0x00001c94:    2203        ."      MOVS     r2,#3
        0x00001c96:    0392        ..      LSLS     r2,r2,#14
        0x00001c98:    4391        .C      BICS     r1,r1,r2
        0x00001c9a:    0b82        ..      LSRS     r2,r0,#14
        0x00001c9c:    0392        ..      LSLS     r2,r2,#14
        0x00001c9e:    2303        .#      MOVS     r3,#3
        0x00001ca0:    039b        ..      LSLS     r3,r3,#14
        0x00001ca2:    401a        .@      ANDS     r2,r2,r3
        0x00001ca4:    4311        .C      ORRS     r1,r1,r2
        0x00001ca6:    4a01        .J      LDR      r2,[pc,#4] ; [0x1cac] = 0x50000200
        0x00001ca8:    6211        .b      STR      r1,[r2,#0x20]
        0x00001caa:    4770        pG      BX       lr
    $d
        0x00001cac:    50000200    ...P    DCD    1342177792
    $t
    i.DrvTIMER_EnableInt
    DrvTIMER_EnableInt
        0x00001cb0:    b570        p.      PUSH     {r4-r6,lr}
        0x00001cb2:    4604        .F      MOV      r4,r0
        0x00001cb4:    2c00        .,      CMP      r4,#0
        0x00001cb6:    d006        ..      BEQ      0x1cc6 ; DrvTIMER_EnableInt + 22
        0x00001cb8:    2c01        .,      CMP      r4,#1
        0x00001cba:    d005        ..      BEQ      0x1cc8 ; DrvTIMER_EnableInt + 24
        0x00001cbc:    2c02        .,      CMP      r4,#2
        0x00001cbe:    d004        ..      BEQ      0x1cca ; DrvTIMER_EnableInt + 26
        0x00001cc0:    2c03        .,      CMP      r4,#3
        0x00001cc2:    d11a        ..      BNE      0x1cfa ; DrvTIMER_EnableInt + 74
        0x00001cc4:    e002        ..      B        0x1ccc ; DrvTIMER_EnableInt + 28
        0x00001cc6:    bf00        ..      NOP      
        0x00001cc8:    bf00        ..      NOP      
        0x00001cca:    bf00        ..      NOP      
        0x00001ccc:    00a0        ..      LSLS     r0,r4,#2
        0x00001cce:    490c        .I      LDR      r1,[pc,#48] ; [0x1d00] = 0x4234
        0x00001cd0:    5808        .X      LDR      r0,[r1,r0]
        0x00001cd2:    490c        .I      LDR      r1,[pc,#48] ; [0x1d04] = 0x40010000
        0x00001cd4:    1845        E.      ADDS     r5,r0,r1
        0x00001cd6:    6828        (h      LDR      r0,[r5,#0]
        0x00001cd8:    0349        I.      LSLS     r1,r1,#13
        0x00001cda:    4388        .C      BICS     r0,r0,r1
        0x00001cdc:    1840        @.      ADDS     r0,r0,r1
        0x00001cde:    6028        (`      STR      r0,[r5,#0]
        0x00001ce0:    4621        !F      MOV      r1,r4
        0x00001ce2:    3108        .1      ADDS     r1,r1,#8
        0x00001ce4:    b248        H.      SXTB     r0,r1
        0x00001ce6:    2102        .!      MOVS     r1,#2
        0x00001ce8:    f001fbb4    ....    BL       NVIC_SetPriority ; 0x3454
        0x00001cec:    4621        !F      MOV      r1,r4
        0x00001cee:    3108        .1      ADDS     r1,r1,#8
        0x00001cf0:    b248        H.      SXTB     r0,r1
        0x00001cf2:    f001fba5    ....    BL       NVIC_EnableIRQ ; 0x3440
        0x00001cf6:    2000        .       MOVS     r0,#0
        0x00001cf8:    bd70        p.      POP      {r4-r6,pc}
        0x00001cfa:    4803        .H      LDR      r0,[pc,#12] ; [0x1d08] = 0xffff9701
        0x00001cfc:    e7fc        ..      B        0x1cf8 ; DrvTIMER_EnableInt + 72
    $d
        0x00001cfe:    0000        ..      DCW    0
        0x00001d00:    00004234    4B..    DCD    16948
        0x00001d04:    40010000    ...@    DCD    1073807360
        0x00001d08:    ffff9701    ....    DCD    4294940417
    $t
    i.DrvTIMER_Init
    DrvTIMER_Init
        0x00001d0c:    2001        .       MOVS     r0,#1
        0x00001d0e:    4904        .I      LDR      r1,[pc,#16] ; [0x1d20] = 0x200000d4
        0x00001d10:    6008        .`      STR      r0,[r1,#0]
        0x00001d12:    4904        .I      LDR      r1,[pc,#16] ; [0x1d24] = 0x200000d8
        0x00001d14:    6008        .`      STR      r0,[r1,#0]
        0x00001d16:    4904        .I      LDR      r1,[pc,#16] ; [0x1d28] = 0x200000dc
        0x00001d18:    6008        .`      STR      r0,[r1,#0]
        0x00001d1a:    4904        .I      LDR      r1,[pc,#16] ; [0x1d2c] = 0x200000e0
        0x00001d1c:    6008        .`      STR      r0,[r1,#0]
        0x00001d1e:    4770        pG      BX       lr
    $d
        0x00001d20:    200000d4    ...     DCD    536871124
        0x00001d24:    200000d8    ...     DCD    536871128
        0x00001d28:    200000dc    ...     DCD    536871132
        0x00001d2c:    200000e0    ...     DCD    536871136
    $t
    i.DrvTIMER_Open
    DrvTIMER_Open
        0x00001d30:    b5f7        ..      PUSH     {r0-r2,r4-r7,lr}
        0x00001d32:    b082        ..      SUB      sp,sp,#8
        0x00001d34:    460f        .F      MOV      r7,r1
        0x00001d36:    4616        .F      MOV      r6,r2
        0x00001d38:    2000        .       MOVS     r0,#0
        0x00001d3a:    9001        ..      STR      r0,[sp,#4]
        0x00001d3c:    9802        ..      LDR      r0,[sp,#8]
        0x00001d3e:    2800        .(      CMP      r0,#0
        0x00001d40:    d006        ..      BEQ      0x1d50 ; DrvTIMER_Open + 32
        0x00001d42:    2801        .(      CMP      r0,#1
        0x00001d44:    d04a        J.      BEQ      0x1ddc ; DrvTIMER_Open + 172
        0x00001d46:    2802        .(      CMP      r0,#2
        0x00001d48:    d07e        ~.      BEQ      0x1e48 ; DrvTIMER_Open + 280
        0x00001d4a:    2803        .(      CMP      r0,#3
        0x00001d4c:    d17d        }.      BNE      0x1e4a ; DrvTIMER_Open + 282
        0x00001d4e:    e0d2        ..      B        0x1ef6 ; DrvTIMER_Open + 454
        0x00001d50:    489a        .H      LDR      r0,[pc,#616] ; [0x1fbc] = 0x200000d4
        0x00001d52:    6800        .h      LDR      r0,[r0,#0]
        0x00001d54:    2801        .(      CMP      r0,#1
        0x00001d56:    d103        ..      BNE      0x1d60 ; DrvTIMER_Open + 48
        0x00001d58:    4899        .H      LDR      r0,[pc,#612] ; [0x1fc0] = 0x200000e4
        0x00001d5a:    6800        .h      LDR      r0,[r0,#0]
        0x00001d5c:    2800        .(      CMP      r0,#0
        0x00001d5e:    d002        ..      BEQ      0x1d66 ; DrvTIMER_Open + 54
        0x00001d60:    4898        .H      LDR      r0,[pc,#608] ; [0x1fc4] = 0xffff9703
        0x00001d62:    b005        ..      ADD      sp,sp,#0x14
        0x00001d64:    bdf0        ..      POP      {r4-r7,pc}
        0x00001d66:    2001        .       MOVS     r0,#1
        0x00001d68:    4995        .I      LDR      r1,[pc,#596] ; [0x1fc0] = 0x200000e4
        0x00001d6a:    6008        .`      STR      r0,[r1,#0]
        0x00001d6c:    4896        .H      LDR      r0,[pc,#600] ; [0x1fc8] = 0x50000200
        0x00001d6e:    6880        .h      LDR      r0,[r0,#8]
        0x00001d70:    2104        .!      MOVS     r1,#4
        0x00001d72:    4388        .C      BICS     r0,r0,r1
        0x00001d74:    1d00        ..      ADDS     r0,r0,#4
        0x00001d76:    4994        .I      LDR      r1,[pc,#592] ; [0x1fc8] = 0x50000200
        0x00001d78:    6088        .`      STR      r0,[r1,#8]
        0x00001d7a:    2000        .       MOVS     r0,#0
        0x00001d7c:    4993        .I      LDR      r1,[pc,#588] ; [0x1fcc] = 0x40010000
        0x00001d7e:    6008        .`      STR      r0,[r1,#0]
        0x00001d80:    4608        .F      MOV      r0,r1
        0x00001d82:    6880        .h      LDR      r0,[r0,#8]
        0x00001d84:    0840        @.      LSRS     r0,r0,#1
        0x00001d86:    0040        @.      LSLS     r0,r0,#1
        0x00001d88:    1c40        @.      ADDS     r0,r0,#1
        0x00001d8a:    6088        .`      STR      r0,[r1,#8]
        0x00001d8c:    2500        .%      MOVS     r5,#0
        0x00001d8e:    e005        ..      B        0x1d9c ; DrvTIMER_Open + 108
        0x00001d90:    2100        .!      MOVS     r1,#0
        0x00001d92:    2014        .       MOVS     r0,#0x14
        0x00001d94:    4368        hC      MULS     r0,r5,r0
        0x00001d96:    4a8e        .J      LDR      r2,[pc,#568] ; [0x1fd0] = 0x20000394
        0x00001d98:    5011        .P      STR      r1,[r2,r0]
        0x00001d9a:    1c6d        m.      ADDS     r5,r5,#1
        0x00001d9c:    2d00        .-      CMP      r5,#0
        0x00001d9e:    d0f7        ..      BEQ      0x1d90 ; DrvTIMER_Open + 96
        0x00001da0:    2000        .       MOVS     r0,#0
        0x00001da2:    498c        .I      LDR      r1,[pc,#560] ; [0x1fd4] = 0x20000104
        0x00001da4:    6008        .`      STR      r0,[r1,#0]
        0x00001da6:    488c        .H      LDR      r0,[pc,#560] ; [0x1fd8] = 0x20000128
        0x00001da8:    6007        .`      STR      r7,[r0,#0]
        0x00001daa:    2000        .       MOVS     r0,#0
        0x00001dac:    f001f8e0    ....    BL       GetTimerClock ; 0x2f70
        0x00001db0:    4639        9F      MOV      r1,r7
        0x00001db2:    9000        ..      STR      r0,[sp,#0]
        0x00001db4:    f7fefb6a    ..j.    BL       CalTimerInitValue ; 0x48c
        0x00001db8:    4604        .F      MOV      r4,r0
        0x00001dba:    1c60        `.      ADDS     r0,r4,#1
        0x00001dbc:    d102        ..      BNE      0x1dc4 ; DrvTIMER_Open + 148
        0x00001dbe:    4881        .H      LDR      r0,[pc,#516] ; [0x1fc4] = 0xffff9703
        0x00001dc0:    1e40        @.      SUBS     r0,r0,#1
        0x00001dc2:    e7ce        ..      B        0x1d62 ; DrvTIMER_Open + 50
        0x00001dc4:    0220         .      LSLS     r0,r4,#8
        0x00001dc6:    0a00        ..      LSRS     r0,r0,#8
        0x00001dc8:    4980        .I      LDR      r1,[pc,#512] ; [0x1fcc] = 0x40010000
        0x00001dca:    6048        H`      STR      r0,[r1,#4]
        0x00001dcc:    0e20         .      LSRS     r0,r4,#24
        0x00001dce:    9901        ..      LDR      r1,[sp,#4]
        0x00001dd0:    4308        .C      ORRS     r0,r0,r1
        0x00001dd2:    06f1        ..      LSLS     r1,r6,#27
        0x00001dd4:    4308        .C      ORRS     r0,r0,r1
        0x00001dd6:    497d        }I      LDR      r1,[pc,#500] ; [0x1fcc] = 0x40010000
        0x00001dd8:    6008        .`      STR      r0,[r1,#0]
        0x00001dda:    e0d4        ..      B        0x1f86 ; DrvTIMER_Open + 598
        0x00001ddc:    487f        .H      LDR      r0,[pc,#508] ; [0x1fdc] = 0x200000d8
        0x00001dde:    6800        .h      LDR      r0,[r0,#0]
        0x00001de0:    2801        .(      CMP      r0,#1
        0x00001de2:    d103        ..      BNE      0x1dec ; DrvTIMER_Open + 188
        0x00001de4:    487e        ~H      LDR      r0,[pc,#504] ; [0x1fe0] = 0x200000e8
        0x00001de6:    6800        .h      LDR      r0,[r0,#0]
        0x00001de8:    2800        .(      CMP      r0,#0
        0x00001dea:    d001        ..      BEQ      0x1df0 ; DrvTIMER_Open + 192
        0x00001dec:    4875        uH      LDR      r0,[pc,#468] ; [0x1fc4] = 0xffff9703
        0x00001dee:    e7b8        ..      B        0x1d62 ; DrvTIMER_Open + 50
        0x00001df0:    2001        .       MOVS     r0,#1
        0x00001df2:    497b        {I      LDR      r1,[pc,#492] ; [0x1fe0] = 0x200000e8
        0x00001df4:    6008        .`      STR      r0,[r1,#0]
        0x00001df6:    4874        tH      LDR      r0,[pc,#464] ; [0x1fc8] = 0x50000200
        0x00001df8:    6880        .h      LDR      r0,[r0,#8]
        0x00001dfa:    2108        .!      MOVS     r1,#8
        0x00001dfc:    4388        .C      BICS     r0,r0,r1
        0x00001dfe:    3008        .0      ADDS     r0,r0,#8
        0x00001e00:    4971        qI      LDR      r1,[pc,#452] ; [0x1fc8] = 0x50000200
        0x00001e02:    6088        .`      STR      r0,[r1,#8]
        0x00001e04:    2000        .       MOVS     r0,#0
        0x00001e06:    4971        qI      LDR      r1,[pc,#452] ; [0x1fcc] = 0x40010000
        0x00001e08:    6208        .b      STR      r0,[r1,#0x20]
        0x00001e0a:    4608        .F      MOV      r0,r1
        0x00001e0c:    6a80        .j      LDR      r0,[r0,#0x28]
        0x00001e0e:    0840        @.      LSRS     r0,r0,#1
        0x00001e10:    0040        @.      LSLS     r0,r0,#1
        0x00001e12:    1c40        @.      ADDS     r0,r0,#1
        0x00001e14:    6288        .b      STR      r0,[r1,#0x28]
        0x00001e16:    2500        .%      MOVS     r5,#0
        0x00001e18:    e005        ..      B        0x1e26 ; DrvTIMER_Open + 246
        0x00001e1a:    2100        .!      MOVS     r1,#0
        0x00001e1c:    2014        .       MOVS     r0,#0x14
        0x00001e1e:    4368        hC      MULS     r0,r5,r0
        0x00001e20:    4a70        pJ      LDR      r2,[pc,#448] ; [0x1fe4] = 0x200003a8
        0x00001e22:    5011        .P      STR      r1,[r2,r0]
        0x00001e24:    1c6d        m.      ADDS     r5,r5,#1
        0x00001e26:    2d00        .-      CMP      r5,#0
        0x00001e28:    d0f7        ..      BEQ      0x1e1a ; DrvTIMER_Open + 234
        0x00001e2a:    2000        .       MOVS     r0,#0
        0x00001e2c:    496e        nI      LDR      r1,[pc,#440] ; [0x1fe8] = 0x20000108
        0x00001e2e:    6008        .`      STR      r0,[r1,#0]
        0x00001e30:    486e        nH      LDR      r0,[pc,#440] ; [0x1fec] = 0x2000012c
        0x00001e32:    6007        .`      STR      r7,[r0,#0]
        0x00001e34:    2001        .       MOVS     r0,#1
        0x00001e36:    f001f89b    ....    BL       GetTimerClock ; 0x2f70
        0x00001e3a:    4639        9F      MOV      r1,r7
        0x00001e3c:    9000        ..      STR      r0,[sp,#0]
        0x00001e3e:    f7fefb25    ..%.    BL       CalTimerInitValue ; 0x48c
        0x00001e42:    4604        .F      MOV      r4,r0
        0x00001e44:    1c60        `.      ADDS     r0,r4,#1
        0x00001e46:    e001        ..      B        0x1e4c ; DrvTIMER_Open + 284
        0x00001e48:    e010        ..      B        0x1e6c ; DrvTIMER_Open + 316
        0x00001e4a:    e099        ..      B        0x1f80 ; DrvTIMER_Open + 592
        0x00001e4c:    d102        ..      BNE      0x1e54 ; DrvTIMER_Open + 292
        0x00001e4e:    485d        ]H      LDR      r0,[pc,#372] ; [0x1fc4] = 0xffff9703
        0x00001e50:    1e40        @.      SUBS     r0,r0,#1
        0x00001e52:    e786        ..      B        0x1d62 ; DrvTIMER_Open + 50
        0x00001e54:    0220         .      LSLS     r0,r4,#8
        0x00001e56:    0a00        ..      LSRS     r0,r0,#8
        0x00001e58:    495c        \I      LDR      r1,[pc,#368] ; [0x1fcc] = 0x40010000
        0x00001e5a:    6248        Hb      STR      r0,[r1,#0x24]
        0x00001e5c:    0e20         .      LSRS     r0,r4,#24
        0x00001e5e:    9901        ..      LDR      r1,[sp,#4]
        0x00001e60:    4308        .C      ORRS     r0,r0,r1
        0x00001e62:    06f1        ..      LSLS     r1,r6,#27
        0x00001e64:    4308        .C      ORRS     r0,r0,r1
        0x00001e66:    4959        YI      LDR      r1,[pc,#356] ; [0x1fcc] = 0x40010000
        0x00001e68:    6208        .b      STR      r0,[r1,#0x20]
        0x00001e6a:    e08c        ..      B        0x1f86 ; DrvTIMER_Open + 598
        0x00001e6c:    4860        `H      LDR      r0,[pc,#384] ; [0x1ff0] = 0x200000dc
        0x00001e6e:    6800        .h      LDR      r0,[r0,#0]
        0x00001e70:    2801        .(      CMP      r0,#1
        0x00001e72:    d103        ..      BNE      0x1e7c ; DrvTIMER_Open + 332
        0x00001e74:    485f        _H      LDR      r0,[pc,#380] ; [0x1ff4] = 0x200000ec
        0x00001e76:    6800        .h      LDR      r0,[r0,#0]
        0x00001e78:    2800        .(      CMP      r0,#0
        0x00001e7a:    d001        ..      BEQ      0x1e80 ; DrvTIMER_Open + 336
        0x00001e7c:    4851        QH      LDR      r0,[pc,#324] ; [0x1fc4] = 0xffff9703
        0x00001e7e:    e770        p.      B        0x1d62 ; DrvTIMER_Open + 50
        0x00001e80:    2001        .       MOVS     r0,#1
        0x00001e82:    495c        \I      LDR      r1,[pc,#368] ; [0x1ff4] = 0x200000ec
        0x00001e84:    6008        .`      STR      r0,[r1,#0]
        0x00001e86:    4850        PH      LDR      r0,[pc,#320] ; [0x1fc8] = 0x50000200
        0x00001e88:    6880        .h      LDR      r0,[r0,#8]
        0x00001e8a:    2110        .!      MOVS     r1,#0x10
        0x00001e8c:    4388        .C      BICS     r0,r0,r1
        0x00001e8e:    3010        .0      ADDS     r0,r0,#0x10
        0x00001e90:    494d        MI      LDR      r1,[pc,#308] ; [0x1fc8] = 0x50000200
        0x00001e92:    6088        .`      STR      r0,[r1,#8]
        0x00001e94:    2000        .       MOVS     r0,#0
        0x00001e96:    4958        XI      LDR      r1,[pc,#352] ; [0x1ff8] = 0x40110000
        0x00001e98:    6008        .`      STR      r0,[r1,#0]
        0x00001e9a:    4608        .F      MOV      r0,r1
        0x00001e9c:    6880        .h      LDR      r0,[r0,#8]
        0x00001e9e:    0840        @.      LSRS     r0,r0,#1
        0x00001ea0:    0040        @.      LSLS     r0,r0,#1
        0x00001ea2:    1c40        @.      ADDS     r0,r0,#1
        0x00001ea4:    6088        .`      STR      r0,[r1,#8]
        0x00001ea6:    2500        .%      MOVS     r5,#0
        0x00001ea8:    e005        ..      B        0x1eb6 ; DrvTIMER_Open + 390
        0x00001eaa:    2100        .!      MOVS     r1,#0
        0x00001eac:    2014        .       MOVS     r0,#0x14
        0x00001eae:    4368        hC      MULS     r0,r5,r0
        0x00001eb0:    4a52        RJ      LDR      r2,[pc,#328] ; [0x1ffc] = 0x200003bc
        0x00001eb2:    5011        .P      STR      r1,[r2,r0]
        0x00001eb4:    1c6d        m.      ADDS     r5,r5,#1
        0x00001eb6:    2d00        .-      CMP      r5,#0
        0x00001eb8:    d0f7        ..      BEQ      0x1eaa ; DrvTIMER_Open + 378
        0x00001eba:    2000        .       MOVS     r0,#0
        0x00001ebc:    4950        PI      LDR      r1,[pc,#320] ; [0x2000] = 0x2000010c
        0x00001ebe:    6008        .`      STR      r0,[r1,#0]
        0x00001ec0:    4850        PH      LDR      r0,[pc,#320] ; [0x2004] = 0x20000130
        0x00001ec2:    6007        .`      STR      r7,[r0,#0]
        0x00001ec4:    2002        .       MOVS     r0,#2
        0x00001ec6:    f001f853    ..S.    BL       GetTimerClock ; 0x2f70
        0x00001eca:    4639        9F      MOV      r1,r7
        0x00001ecc:    9000        ..      STR      r0,[sp,#0]
        0x00001ece:    f7fefadd    ....    BL       CalTimerInitValue ; 0x48c
        0x00001ed2:    4604        .F      MOV      r4,r0
        0x00001ed4:    1c60        `.      ADDS     r0,r4,#1
        0x00001ed6:    d102        ..      BNE      0x1ede ; DrvTIMER_Open + 430
        0x00001ed8:    483a        :H      LDR      r0,[pc,#232] ; [0x1fc4] = 0xffff9703
        0x00001eda:    1e40        @.      SUBS     r0,r0,#1
        0x00001edc:    e741        A.      B        0x1d62 ; DrvTIMER_Open + 50
        0x00001ede:    0220         .      LSLS     r0,r4,#8
        0x00001ee0:    0a00        ..      LSRS     r0,r0,#8
        0x00001ee2:    4945        EI      LDR      r1,[pc,#276] ; [0x1ff8] = 0x40110000
        0x00001ee4:    6048        H`      STR      r0,[r1,#4]
        0x00001ee6:    0e20         .      LSRS     r0,r4,#24
        0x00001ee8:    9901        ..      LDR      r1,[sp,#4]
        0x00001eea:    4308        .C      ORRS     r0,r0,r1
        0x00001eec:    06f1        ..      LSLS     r1,r6,#27
        0x00001eee:    4308        .C      ORRS     r0,r0,r1
        0x00001ef0:    4941        AI      LDR      r1,[pc,#260] ; [0x1ff8] = 0x40110000
        0x00001ef2:    6008        .`      STR      r0,[r1,#0]
        0x00001ef4:    e047        G.      B        0x1f86 ; DrvTIMER_Open + 598
        0x00001ef6:    4844        DH      LDR      r0,[pc,#272] ; [0x2008] = 0x200000e0
        0x00001ef8:    6800        .h      LDR      r0,[r0,#0]
        0x00001efa:    2801        .(      CMP      r0,#1
        0x00001efc:    d103        ..      BNE      0x1f06 ; DrvTIMER_Open + 470
        0x00001efe:    4843        CH      LDR      r0,[pc,#268] ; [0x200c] = 0x200000f0
        0x00001f00:    6800        .h      LDR      r0,[r0,#0]
        0x00001f02:    2800        .(      CMP      r0,#0
        0x00001f04:    d001        ..      BEQ      0x1f0a ; DrvTIMER_Open + 474
        0x00001f06:    482f        /H      LDR      r0,[pc,#188] ; [0x1fc4] = 0xffff9703
        0x00001f08:    e72b        +.      B        0x1d62 ; DrvTIMER_Open + 50
        0x00001f0a:    2001        .       MOVS     r0,#1
        0x00001f0c:    493f        ?I      LDR      r1,[pc,#252] ; [0x200c] = 0x200000f0
        0x00001f0e:    6008        .`      STR      r0,[r1,#0]
        0x00001f10:    482d        -H      LDR      r0,[pc,#180] ; [0x1fc8] = 0x50000200
        0x00001f12:    6880        .h      LDR      r0,[r0,#8]
        0x00001f14:    2120         !      MOVS     r1,#0x20
        0x00001f16:    4388        .C      BICS     r0,r0,r1
        0x00001f18:    3020         0      ADDS     r0,r0,#0x20
        0x00001f1a:    492b        +I      LDR      r1,[pc,#172] ; [0x1fc8] = 0x50000200
        0x00001f1c:    6088        .`      STR      r0,[r1,#8]
        0x00001f1e:    2000        .       MOVS     r0,#0
        0x00001f20:    4935        5I      LDR      r1,[pc,#212] ; [0x1ff8] = 0x40110000
        0x00001f22:    6208        .b      STR      r0,[r1,#0x20]
        0x00001f24:    4608        .F      MOV      r0,r1
        0x00001f26:    6a80        .j      LDR      r0,[r0,#0x28]
        0x00001f28:    0840        @.      LSRS     r0,r0,#1
        0x00001f2a:    0040        @.      LSLS     r0,r0,#1
        0x00001f2c:    1c40        @.      ADDS     r0,r0,#1
        0x00001f2e:    6288        .b      STR      r0,[r1,#0x28]
        0x00001f30:    2500        .%      MOVS     r5,#0
        0x00001f32:    e005        ..      B        0x1f40 ; DrvTIMER_Open + 528
        0x00001f34:    2100        .!      MOVS     r1,#0
        0x00001f36:    2014        .       MOVS     r0,#0x14
        0x00001f38:    4368        hC      MULS     r0,r5,r0
        0x00001f3a:    4a35        5J      LDR      r2,[pc,#212] ; [0x2010] = 0x200003d0
        0x00001f3c:    5011        .P      STR      r1,[r2,r0]
        0x00001f3e:    1c6d        m.      ADDS     r5,r5,#1
        0x00001f40:    2d00        .-      CMP      r5,#0
        0x00001f42:    d0f7        ..      BEQ      0x1f34 ; DrvTIMER_Open + 516
        0x00001f44:    2000        .       MOVS     r0,#0
        0x00001f46:    4933        3I      LDR      r1,[pc,#204] ; [0x2014] = 0x20000110
        0x00001f48:    6008        .`      STR      r0,[r1,#0]
        0x00001f4a:    4833        3H      LDR      r0,[pc,#204] ; [0x2018] = 0x20000134
        0x00001f4c:    6007        .`      STR      r7,[r0,#0]
        0x00001f4e:    2003        .       MOVS     r0,#3
        0x00001f50:    f001f80e    ....    BL       GetTimerClock ; 0x2f70
        0x00001f54:    4639        9F      MOV      r1,r7
        0x00001f56:    9000        ..      STR      r0,[sp,#0]
        0x00001f58:    f7fefa98    ....    BL       CalTimerInitValue ; 0x48c
        0x00001f5c:    4604        .F      MOV      r4,r0
        0x00001f5e:    1c60        `.      ADDS     r0,r4,#1
        0x00001f60:    d102        ..      BNE      0x1f68 ; DrvTIMER_Open + 568
        0x00001f62:    4818        .H      LDR      r0,[pc,#96] ; [0x1fc4] = 0xffff9703
        0x00001f64:    1e40        @.      SUBS     r0,r0,#1
        0x00001f66:    e6fc        ..      B        0x1d62 ; DrvTIMER_Open + 50
        0x00001f68:    0220         .      LSLS     r0,r4,#8
        0x00001f6a:    0a00        ..      LSRS     r0,r0,#8
        0x00001f6c:    4922        "I      LDR      r1,[pc,#136] ; [0x1ff8] = 0x40110000
        0x00001f6e:    6248        Hb      STR      r0,[r1,#0x24]
        0x00001f70:    0e20         .      LSRS     r0,r4,#24
        0x00001f72:    9901        ..      LDR      r1,[sp,#4]
        0x00001f74:    4308        .C      ORRS     r0,r0,r1
        0x00001f76:    06f1        ..      LSLS     r1,r6,#27
        0x00001f78:    4308        .C      ORRS     r0,r0,r1
        0x00001f7a:    491f        .I      LDR      r1,[pc,#124] ; [0x1ff8] = 0x40110000
        0x00001f7c:    6208        .b      STR      r0,[r1,#0x20]
        0x00001f7e:    e002        ..      B        0x1f86 ; DrvTIMER_Open + 598
        0x00001f80:    4810        .H      LDR      r0,[pc,#64] ; [0x1fc4] = 0xffff9703
        0x00001f82:    1e80        ..      SUBS     r0,r0,#2
        0x00001f84:    e6ed        ..      B        0x1d62 ; DrvTIMER_Open + 50
        0x00001f86:    bf00        ..      NOP      
        0x00001f88:    2e02        ..      CMP      r6,#2
        0x00001f8a:    d115        ..      BNE      0x1fb8 ; DrvTIMER_Open + 648
        0x00001f8c:    9802        ..      LDR      r0,[sp,#8]
        0x00001f8e:    2800        .(      CMP      r0,#0
        0x00001f90:    d006        ..      BEQ      0x1fa0 ; DrvTIMER_Open + 624
        0x00001f92:    2801        .(      CMP      r0,#1
        0x00001f94:    d005        ..      BEQ      0x1fa2 ; DrvTIMER_Open + 626
        0x00001f96:    2802        .(      CMP      r0,#2
        0x00001f98:    d004        ..      BEQ      0x1fa4 ; DrvTIMER_Open + 628
        0x00001f9a:    2803        .(      CMP      r0,#3
        0x00001f9c:    d109        ..      BNE      0x1fb2 ; DrvTIMER_Open + 642
        0x00001f9e:    e002        ..      B        0x1fa6 ; DrvTIMER_Open + 630
        0x00001fa0:    bf00        ..      NOP      
        0x00001fa2:    bf00        ..      NOP      
        0x00001fa4:    bf00        ..      NOP      
        0x00001fa6:    9902        ..      LDR      r1,[sp,#8]
        0x00001fa8:    3121        !1      ADDS     r1,r1,#0x21
        0x00001faa:    b2c8        ..      UXTB     r0,r1
        0x00001fac:    f7fefa92    ....    BL       DrvGPIO_InitFunction ; 0x4d4
        0x00001fb0:    bf00        ..      NOP      
        0x00001fb2:    4804        .H      LDR      r0,[pc,#16] ; [0x1fc4] = 0xffff9703
        0x00001fb4:    1e80        ..      SUBS     r0,r0,#2
        0x00001fb6:    e6d4        ..      B        0x1d62 ; DrvTIMER_Open + 50
        0x00001fb8:    2000        .       MOVS     r0,#0
        0x00001fba:    e6d2        ..      B        0x1d62 ; DrvTIMER_Open + 50
    $d
        0x00001fbc:    200000d4    ...     DCD    536871124
        0x00001fc0:    200000e4    ...     DCD    536871140
        0x00001fc4:    ffff9703    ....    DCD    4294940419
        0x00001fc8:    50000200    ...P    DCD    1342177792
        0x00001fcc:    40010000    ...@    DCD    1073807360
        0x00001fd0:    20000394    ...     DCD    536871828
        0x00001fd4:    20000104    ...     DCD    536871172
        0x00001fd8:    20000128    (..     DCD    536871208
        0x00001fdc:    200000d8    ...     DCD    536871128
        0x00001fe0:    200000e8    ...     DCD    536871144
        0x00001fe4:    200003a8    ...     DCD    536871848
        0x00001fe8:    20000108    ...     DCD    536871176
        0x00001fec:    2000012c    ,..     DCD    536871212
        0x00001ff0:    200000dc    ...     DCD    536871132
        0x00001ff4:    200000ec    ...     DCD    536871148
        0x00001ff8:    40110000    ...@    DCD    1074855936
        0x00001ffc:    200003bc    ...     DCD    536871868
        0x00002000:    2000010c    ...     DCD    536871180
        0x00002004:    20000130    0..     DCD    536871216
        0x00002008:    200000e0    ...     DCD    536871136
        0x0000200c:    200000f0    ...     DCD    536871152
        0x00002010:    200003d0    ...     DCD    536871888
        0x00002014:    20000110    ...     DCD    536871184
        0x00002018:    20000134    4..     DCD    536871220
    $t
    i.DrvTIMER_SetTimerEvent
    DrvTIMER_SetTimerEvent
        0x0000201c:    b5ff        ..      PUSH     {r0-r7,lr}
        0x0000201e:    460c        .F      MOV      r4,r1
        0x00002020:    4615        .F      MOV      r5,r2
        0x00002022:    2200        ."      MOVS     r2,#0
        0x00002024:    9800        ..      LDR      r0,[sp,#0]
        0x00002026:    2800        .(      CMP      r0,#0
        0x00002028:    d006        ..      BEQ      0x2038 ; DrvTIMER_SetTimerEvent + 28
        0x0000202a:    2801        .(      CMP      r0,#1
        0x0000202c:    d038        8.      BEQ      0x20a0 ; DrvTIMER_SetTimerEvent + 132
        0x0000202e:    2802        .(      CMP      r0,#2
        0x00002030:    d069        i.      BEQ      0x2106 ; DrvTIMER_SetTimerEvent + 234
        0x00002032:    2803        .(      CMP      r0,#3
        0x00002034:    d177        w.      BNE      0x2126 ; DrvTIMER_SetTimerEvent + 266
        0x00002036:    e09a        ..      B        0x216e ; DrvTIMER_SetTimerEvent + 338
        0x00002038:    4868        hH      LDR      r0,[pc,#416] ; [0x21dc] = 0x20000114
        0x0000203a:    6800        .h      LDR      r0,[r0,#0]
        0x0000203c:    2800        .(      CMP      r0,#0
        0x0000203e:    d002        ..      BEQ      0x2046 ; DrvTIMER_SetTimerEvent + 42
        0x00002040:    4867        gH      LDR      r0,[pc,#412] ; [0x21e0] = 0xffff9704
        0x00002042:    b004        ..      ADD      sp,sp,#0x10
        0x00002044:    bdf0        ..      POP      {r4-r7,pc}
        0x00002046:    2001        .       MOVS     r0,#1
        0x00002048:    4e66        fN      LDR      r6,[pc,#408] ; [0x21e4] = 0x200000f4
        0x0000204a:    6030        0`      STR      r0,[r6,#0]
        0x0000204c:    4863        cH      LDR      r0,[pc,#396] ; [0x21dc] = 0x20000114
        0x0000204e:    6800        .h      LDR      r0,[r0,#0]
        0x00002050:    1c40        @.      ADDS     r0,r0,#1
        0x00002052:    4e62        bN      LDR      r6,[pc,#392] ; [0x21dc] = 0x20000114
        0x00002054:    6030        0`      STR      r0,[r6,#0]
        0x00002056:    2100        .!      MOVS     r1,#0
        0x00002058:    e01e        ..      B        0x2098 ; DrvTIMER_SetTimerEvent + 124
        0x0000205a:    2014        .       MOVS     r0,#0x14
        0x0000205c:    4348        HC      MULS     r0,r1,r0
        0x0000205e:    4e62        bN      LDR      r6,[pc,#392] ; [0x21e8] = 0x20000394
        0x00002060:    5830        0X      LDR      r0,[r6,r0]
        0x00002062:    2800        .(      CMP      r0,#0
        0x00002064:    d117        ..      BNE      0x2096 ; DrvTIMER_SetTimerEvent + 122
        0x00002066:    2601        .&      MOVS     r6,#1
        0x00002068:    2014        .       MOVS     r0,#0x14
        0x0000206a:    4348        HC      MULS     r0,r1,r0
        0x0000206c:    4f5e        ^O      LDR      r7,[pc,#376] ; [0x21e8] = 0x20000394
        0x0000206e:    503e        >P      STR      r6,[r7,r0]
        0x00002070:    2014        .       MOVS     r0,#0x14
        0x00002072:    4348        HC      MULS     r0,r1,r0
        0x00002074:    463e        >F      MOV      r6,r7
        0x00002076:    1980        ..      ADDS     r0,r0,r6
        0x00002078:    6044        D`      STR      r4,[r0,#4]
        0x0000207a:    2014        .       MOVS     r0,#0x14
        0x0000207c:    4348        HC      MULS     r0,r1,r0
        0x0000207e:    1980        ..      ADDS     r0,r0,r6
        0x00002080:    6084        .`      STR      r4,[r0,#8]
        0x00002082:    2014        .       MOVS     r0,#0x14
        0x00002084:    4348        HC      MULS     r0,r1,r0
        0x00002086:    1980        ..      ADDS     r0,r0,r6
        0x00002088:    60c5        .`      STR      r5,[r0,#0xc]
        0x0000208a:    2014        .       MOVS     r0,#0x14
        0x0000208c:    4348        HC      MULS     r0,r1,r0
        0x0000208e:    1980        ..      ADDS     r0,r0,r6
        0x00002090:    6103        .a      STR      r3,[r0,#0x10]
        0x00002092:    460a        .F      MOV      r2,r1
        0x00002094:    e002        ..      B        0x209c ; DrvTIMER_SetTimerEvent + 128
        0x00002096:    1c49        I.      ADDS     r1,r1,#1
        0x00002098:    2901        .)      CMP      r1,#1
        0x0000209a:    dbde        ..      BLT      0x205a ; DrvTIMER_SetTimerEvent + 62
        0x0000209c:    bf00        ..      NOP      
        0x0000209e:    e09a        ..      B        0x21d6 ; DrvTIMER_SetTimerEvent + 442
        0x000020a0:    4852        RH      LDR      r0,[pc,#328] ; [0x21ec] = 0x20000118
        0x000020a2:    6800        .h      LDR      r0,[r0,#0]
        0x000020a4:    2800        .(      CMP      r0,#0
        0x000020a6:    d001        ..      BEQ      0x20ac ; DrvTIMER_SetTimerEvent + 144
        0x000020a8:    484d        MH      LDR      r0,[pc,#308] ; [0x21e0] = 0xffff9704
        0x000020aa:    e7ca        ..      B        0x2042 ; DrvTIMER_SetTimerEvent + 38
        0x000020ac:    2001        .       MOVS     r0,#1
        0x000020ae:    4e50        PN      LDR      r6,[pc,#320] ; [0x21f0] = 0x200000f8
        0x000020b0:    6030        0`      STR      r0,[r6,#0]
        0x000020b2:    484e        NH      LDR      r0,[pc,#312] ; [0x21ec] = 0x20000118
        0x000020b4:    6800        .h      LDR      r0,[r0,#0]
        0x000020b6:    1c40        @.      ADDS     r0,r0,#1
        0x000020b8:    4e4c        LN      LDR      r6,[pc,#304] ; [0x21ec] = 0x20000118
        0x000020ba:    6030        0`      STR      r0,[r6,#0]
        0x000020bc:    2100        .!      MOVS     r1,#0
        0x000020be:    e01e        ..      B        0x20fe ; DrvTIMER_SetTimerEvent + 226
        0x000020c0:    2014        .       MOVS     r0,#0x14
        0x000020c2:    4348        HC      MULS     r0,r1,r0
        0x000020c4:    4e4b        KN      LDR      r6,[pc,#300] ; [0x21f4] = 0x200003a8
        0x000020c6:    5830        0X      LDR      r0,[r6,r0]
        0x000020c8:    2800        .(      CMP      r0,#0
        0x000020ca:    d117        ..      BNE      0x20fc ; DrvTIMER_SetTimerEvent + 224
        0x000020cc:    2601        .&      MOVS     r6,#1
        0x000020ce:    2014        .       MOVS     r0,#0x14
        0x000020d0:    4348        HC      MULS     r0,r1,r0
        0x000020d2:    4f48        HO      LDR      r7,[pc,#288] ; [0x21f4] = 0x200003a8
        0x000020d4:    503e        >P      STR      r6,[r7,r0]
        0x000020d6:    2014        .       MOVS     r0,#0x14
        0x000020d8:    4348        HC      MULS     r0,r1,r0
        0x000020da:    463e        >F      MOV      r6,r7
        0x000020dc:    1980        ..      ADDS     r0,r0,r6
        0x000020de:    6044        D`      STR      r4,[r0,#4]
        0x000020e0:    2014        .       MOVS     r0,#0x14
        0x000020e2:    4348        HC      MULS     r0,r1,r0
        0x000020e4:    1980        ..      ADDS     r0,r0,r6
        0x000020e6:    6084        .`      STR      r4,[r0,#8]
        0x000020e8:    2014        .       MOVS     r0,#0x14
        0x000020ea:    4348        HC      MULS     r0,r1,r0
        0x000020ec:    1980        ..      ADDS     r0,r0,r6
        0x000020ee:    60c5        .`      STR      r5,[r0,#0xc]
        0x000020f0:    2014        .       MOVS     r0,#0x14
        0x000020f2:    4348        HC      MULS     r0,r1,r0
        0x000020f4:    1980        ..      ADDS     r0,r0,r6
        0x000020f6:    6103        .a      STR      r3,[r0,#0x10]
        0x000020f8:    460a        .F      MOV      r2,r1
        0x000020fa:    e002        ..      B        0x2102 ; DrvTIMER_SetTimerEvent + 230
        0x000020fc:    1c49        I.      ADDS     r1,r1,#1
        0x000020fe:    2901        .)      CMP      r1,#1
        0x00002100:    dbde        ..      BLT      0x20c0 ; DrvTIMER_SetTimerEvent + 164
        0x00002102:    bf00        ..      NOP      
        0x00002104:    e067        g.      B        0x21d6 ; DrvTIMER_SetTimerEvent + 442
        0x00002106:    483c        <H      LDR      r0,[pc,#240] ; [0x21f8] = 0x2000011c
        0x00002108:    6800        .h      LDR      r0,[r0,#0]
        0x0000210a:    2800        .(      CMP      r0,#0
        0x0000210c:    d001        ..      BEQ      0x2112 ; DrvTIMER_SetTimerEvent + 246
        0x0000210e:    4834        4H      LDR      r0,[pc,#208] ; [0x21e0] = 0xffff9704
        0x00002110:    e797        ..      B        0x2042 ; DrvTIMER_SetTimerEvent + 38
        0x00002112:    2001        .       MOVS     r0,#1
        0x00002114:    4e39        9N      LDR      r6,[pc,#228] ; [0x21fc] = 0x200000fc
        0x00002116:    6030        0`      STR      r0,[r6,#0]
        0x00002118:    4837        7H      LDR      r0,[pc,#220] ; [0x21f8] = 0x2000011c
        0x0000211a:    6800        .h      LDR      r0,[r0,#0]
        0x0000211c:    1c40        @.      ADDS     r0,r0,#1
        0x0000211e:    4e36        6N      LDR      r6,[pc,#216] ; [0x21f8] = 0x2000011c
        0x00002120:    6030        0`      STR      r0,[r6,#0]
        0x00002122:    2100        .!      MOVS     r1,#0
        0x00002124:    e01f        ..      B        0x2166 ; DrvTIMER_SetTimerEvent + 330
        0x00002126:    e055        U.      B        0x21d4 ; DrvTIMER_SetTimerEvent + 440
        0x00002128:    2014        .       MOVS     r0,#0x14
        0x0000212a:    4348        HC      MULS     r0,r1,r0
        0x0000212c:    4e34        4N      LDR      r6,[pc,#208] ; [0x2200] = 0x200003bc
        0x0000212e:    5830        0X      LDR      r0,[r6,r0]
        0x00002130:    2800        .(      CMP      r0,#0
        0x00002132:    d117        ..      BNE      0x2164 ; DrvTIMER_SetTimerEvent + 328
        0x00002134:    2601        .&      MOVS     r6,#1
        0x00002136:    2014        .       MOVS     r0,#0x14
        0x00002138:    4348        HC      MULS     r0,r1,r0
        0x0000213a:    4f31        1O      LDR      r7,[pc,#196] ; [0x2200] = 0x200003bc
        0x0000213c:    503e        >P      STR      r6,[r7,r0]
        0x0000213e:    2014        .       MOVS     r0,#0x14
        0x00002140:    4348        HC      MULS     r0,r1,r0
        0x00002142:    463e        >F      MOV      r6,r7
        0x00002144:    1980        ..      ADDS     r0,r0,r6
        0x00002146:    6044        D`      STR      r4,[r0,#4]
        0x00002148:    2014        .       MOVS     r0,#0x14
        0x0000214a:    4348        HC      MULS     r0,r1,r0
        0x0000214c:    1980        ..      ADDS     r0,r0,r6
        0x0000214e:    6084        .`      STR      r4,[r0,#8]
        0x00002150:    2014        .       MOVS     r0,#0x14
        0x00002152:    4348        HC      MULS     r0,r1,r0
        0x00002154:    1980        ..      ADDS     r0,r0,r6
        0x00002156:    60c5        .`      STR      r5,[r0,#0xc]
        0x00002158:    2014        .       MOVS     r0,#0x14
        0x0000215a:    4348        HC      MULS     r0,r1,r0
        0x0000215c:    1980        ..      ADDS     r0,r0,r6
        0x0000215e:    6103        .a      STR      r3,[r0,#0x10]
        0x00002160:    460a        .F      MOV      r2,r1
        0x00002162:    e002        ..      B        0x216a ; DrvTIMER_SetTimerEvent + 334
        0x00002164:    1c49        I.      ADDS     r1,r1,#1
        0x00002166:    2901        .)      CMP      r1,#1
        0x00002168:    dbde        ..      BLT      0x2128 ; DrvTIMER_SetTimerEvent + 268
        0x0000216a:    bf00        ..      NOP      
        0x0000216c:    e033        3.      B        0x21d6 ; DrvTIMER_SetTimerEvent + 442
        0x0000216e:    4825        %H      LDR      r0,[pc,#148] ; [0x2204] = 0x20000120
        0x00002170:    6800        .h      LDR      r0,[r0,#0]
        0x00002172:    2800        .(      CMP      r0,#0
        0x00002174:    d001        ..      BEQ      0x217a ; DrvTIMER_SetTimerEvent + 350
        0x00002176:    481a        .H      LDR      r0,[pc,#104] ; [0x21e0] = 0xffff9704
        0x00002178:    e763        c.      B        0x2042 ; DrvTIMER_SetTimerEvent + 38
        0x0000217a:    2001        .       MOVS     r0,#1
        0x0000217c:    4e22        "N      LDR      r6,[pc,#136] ; [0x2208] = 0x20000100
        0x0000217e:    6030        0`      STR      r0,[r6,#0]
        0x00002180:    4820         H      LDR      r0,[pc,#128] ; [0x2204] = 0x20000120
        0x00002182:    6800        .h      LDR      r0,[r0,#0]
        0x00002184:    1c40        @.      ADDS     r0,r0,#1
        0x00002186:    4e1f        .N      LDR      r6,[pc,#124] ; [0x2204] = 0x20000120
        0x00002188:    6030        0`      STR      r0,[r6,#0]
        0x0000218a:    2100        .!      MOVS     r1,#0
        0x0000218c:    e01e        ..      B        0x21cc ; DrvTIMER_SetTimerEvent + 432
        0x0000218e:    2014        .       MOVS     r0,#0x14
        0x00002190:    4348        HC      MULS     r0,r1,r0
        0x00002192:    4e1e        .N      LDR      r6,[pc,#120] ; [0x220c] = 0x200003d0
        0x00002194:    5830        0X      LDR      r0,[r6,r0]
        0x00002196:    2800        .(      CMP      r0,#0
        0x00002198:    d117        ..      BNE      0x21ca ; DrvTIMER_SetTimerEvent + 430
        0x0000219a:    2601        .&      MOVS     r6,#1
        0x0000219c:    2014        .       MOVS     r0,#0x14
        0x0000219e:    4348        HC      MULS     r0,r1,r0
        0x000021a0:    4f1a        .O      LDR      r7,[pc,#104] ; [0x220c] = 0x200003d0
        0x000021a2:    503e        >P      STR      r6,[r7,r0]
        0x000021a4:    2014        .       MOVS     r0,#0x14
        0x000021a6:    4348        HC      MULS     r0,r1,r0
        0x000021a8:    463e        >F      MOV      r6,r7
        0x000021aa:    1980        ..      ADDS     r0,r0,r6
        0x000021ac:    6044        D`      STR      r4,[r0,#4]
        0x000021ae:    2014        .       MOVS     r0,#0x14
        0x000021b0:    4348        HC      MULS     r0,r1,r0
        0x000021b2:    1980        ..      ADDS     r0,r0,r6
        0x000021b4:    6084        .`      STR      r4,[r0,#8]
        0x000021b6:    2014        .       MOVS     r0,#0x14
        0x000021b8:    4348        HC      MULS     r0,r1,r0
        0x000021ba:    1980        ..      ADDS     r0,r0,r6
        0x000021bc:    60c5        .`      STR      r5,[r0,#0xc]
        0x000021be:    2014        .       MOVS     r0,#0x14
        0x000021c0:    4348        HC      MULS     r0,r1,r0
        0x000021c2:    1980        ..      ADDS     r0,r0,r6
        0x000021c4:    6103        .a      STR      r3,[r0,#0x10]
        0x000021c6:    460a        .F      MOV      r2,r1
        0x000021c8:    e002        ..      B        0x21d0 ; DrvTIMER_SetTimerEvent + 436
        0x000021ca:    1c49        I.      ADDS     r1,r1,#1
        0x000021cc:    2901        .)      CMP      r1,#1
        0x000021ce:    dbde        ..      BLT      0x218e ; DrvTIMER_SetTimerEvent + 370
        0x000021d0:    bf00        ..      NOP      
        0x000021d2:    e000        ..      B        0x21d6 ; DrvTIMER_SetTimerEvent + 442
        0x000021d4:    bf00        ..      NOP      
        0x000021d6:    bf00        ..      NOP      
        0x000021d8:    4610        .F      MOV      r0,r2
        0x000021da:    e732        2.      B        0x2042 ; DrvTIMER_SetTimerEvent + 38
    $d
        0x000021dc:    20000114    ...     DCD    536871188
        0x000021e0:    ffff9704    ....    DCD    4294940420
        0x000021e4:    200000f4    ...     DCD    536871156
        0x000021e8:    20000394    ...     DCD    536871828
        0x000021ec:    20000118    ...     DCD    536871192
        0x000021f0:    200000f8    ...     DCD    536871160
        0x000021f4:    200003a8    ...     DCD    536871848
        0x000021f8:    2000011c    ...     DCD    536871196
        0x000021fc:    200000fc    ...     DCD    536871164
        0x00002200:    200003bc    ...     DCD    536871868
        0x00002204:    20000120     ..     DCD    536871200
        0x00002208:    20000100    ...     DCD    536871168
        0x0000220c:    200003d0    ...     DCD    536871888
    $t
    i.DrvTIMER_Start
    DrvTIMER_Start
        0x00002210:    4601        .F      MOV      r1,r0
        0x00002212:    2900        .)      CMP      r1,#0
        0x00002214:    d006        ..      BEQ      0x2224 ; DrvTIMER_Start + 20
        0x00002216:    2901        .)      CMP      r1,#1
        0x00002218:    d005        ..      BEQ      0x2226 ; DrvTIMER_Start + 22
        0x0000221a:    2902        .)      CMP      r1,#2
        0x0000221c:    d004        ..      BEQ      0x2228 ; DrvTIMER_Start + 24
        0x0000221e:    2903        .)      CMP      r1,#3
        0x00002220:    d10f        ..      BNE      0x2242 ; DrvTIMER_Start + 50
        0x00002222:    e002        ..      B        0x222a ; DrvTIMER_Start + 26
        0x00002224:    bf00        ..      NOP      
        0x00002226:    bf00        ..      NOP      
        0x00002228:    bf00        ..      NOP      
        0x0000222a:    0088        ..      LSLS     r0,r1,#2
        0x0000222c:    4b06        .K      LDR      r3,[pc,#24] ; [0x2248] = 0x4234
        0x0000222e:    5818        .X      LDR      r0,[r3,r0]
        0x00002230:    4b06        .K      LDR      r3,[pc,#24] ; [0x224c] = 0x40010000
        0x00002232:    18c2        ..      ADDS     r2,r0,r3
        0x00002234:    6810        .h      LDR      r0,[r2,#0]
        0x00002236:    039b        ..      LSLS     r3,r3,#14
        0x00002238:    4398        .C      BICS     r0,r0,r3
        0x0000223a:    18c0        ..      ADDS     r0,r0,r3
        0x0000223c:    6010        .`      STR      r0,[r2,#0]
        0x0000223e:    2000        .       MOVS     r0,#0
        0x00002240:    4770        pG      BX       lr
        0x00002242:    4803        .H      LDR      r0,[pc,#12] ; [0x2250] = 0xffff9701
        0x00002244:    e7fc        ..      B        0x2240 ; DrvTIMER_Start + 48
    $d
        0x00002246:    0000        ..      DCW    0
        0x00002248:    00004234    4B..    DCD    16948
        0x0000224c:    40010000    ...@    DCD    1073807360
        0x00002250:    ffff9701    ....    DCD    4294940417
    $t
    i.DrvUART_Open
    DrvUART_Open
        0x00002254:    b5f8        ..      PUSH     {r3-r7,lr}
        0x00002256:    4606        .F      MOV      r6,r0
        0x00002258:    460c        .F      MOV      r4,r1
        0x0000225a:    2e00        ..      CMP      r6,#0
        0x0000225c:    d009        ..      BEQ      0x2272 ; DrvUART_Open + 30
        0x0000225e:    2001        .       MOVS     r0,#1
        0x00002260:    0500        ..      LSLS     r0,r0,#20
        0x00002262:    4286        .B      CMP      r6,r0
        0x00002264:    d005        ..      BEQ      0x2272 ; DrvUART_Open + 30
        0x00002266:    2041        A       MOVS     r0,#0x41
        0x00002268:    0380        ..      LSLS     r0,r0,#14
        0x0000226a:    4286        .B      CMP      r6,r0
        0x0000226c:    d001        ..      BEQ      0x2272 ; DrvUART_Open + 30
        0x0000226e:    488f        .H      LDR      r0,[pc,#572] ; [0x24ac] = 0xffff9802
        0x00002270:    bdf8        ..      POP      {r3-r7,pc}
        0x00002272:    79a0        .y      LDRB     r0,[r4,#6]
        0x00002274:    2800        .(      CMP      r0,#0
        0x00002276:    d00e        ..      BEQ      0x2296 ; DrvUART_Open + 66
        0x00002278:    79a0        .y      LDRB     r0,[r4,#6]
        0x0000227a:    2803        .(      CMP      r0,#3
        0x0000227c:    d00b        ..      BEQ      0x2296 ; DrvUART_Open + 66
        0x0000227e:    79a0        .y      LDRB     r0,[r4,#6]
        0x00002280:    2801        .(      CMP      r0,#1
        0x00002282:    d008        ..      BEQ      0x2296 ; DrvUART_Open + 66
        0x00002284:    79a0        .y      LDRB     r0,[r4,#6]
        0x00002286:    2805        .(      CMP      r0,#5
        0x00002288:    d005        ..      BEQ      0x2296 ; DrvUART_Open + 66
        0x0000228a:    79a0        .y      LDRB     r0,[r4,#6]
        0x0000228c:    2807        .(      CMP      r0,#7
        0x0000228e:    d002        ..      BEQ      0x2296 ; DrvUART_Open + 66
        0x00002290:    4886        .H      LDR      r0,[pc,#536] ; [0x24ac] = 0xffff9802
        0x00002292:    1c40        @.      ADDS     r0,r0,#1
        0x00002294:    e7ec        ..      B        0x2270 ; DrvUART_Open + 28
        0x00002296:    7920         y      LDRB     r0,[r4,#4]
        0x00002298:    2800        .(      CMP      r0,#0
        0x0000229a:    d00b        ..      BEQ      0x22b4 ; DrvUART_Open + 96
        0x0000229c:    7920         y      LDRB     r0,[r4,#4]
        0x0000229e:    2801        .(      CMP      r0,#1
        0x000022a0:    d008        ..      BEQ      0x22b4 ; DrvUART_Open + 96
        0x000022a2:    7920         y      LDRB     r0,[r4,#4]
        0x000022a4:    2802        .(      CMP      r0,#2
        0x000022a6:    d005        ..      BEQ      0x22b4 ; DrvUART_Open + 96
        0x000022a8:    7920         y      LDRB     r0,[r4,#4]
        0x000022aa:    2803        .(      CMP      r0,#3
        0x000022ac:    d002        ..      BEQ      0x22b4 ; DrvUART_Open + 96
        0x000022ae:    487f        .H      LDR      r0,[pc,#508] ; [0x24ac] = 0xffff9802
        0x000022b0:    1c80        ..      ADDS     r0,r0,#2
        0x000022b2:    e7dd        ..      B        0x2270 ; DrvUART_Open + 28
        0x000022b4:    7960        `y      LDRB     r0,[r4,#5]
        0x000022b6:    2800        .(      CMP      r0,#0
        0x000022b8:    d008        ..      BEQ      0x22cc ; DrvUART_Open + 120
        0x000022ba:    7960        `y      LDRB     r0,[r4,#5]
        0x000022bc:    2801        .(      CMP      r0,#1
        0x000022be:    d005        ..      BEQ      0x22cc ; DrvUART_Open + 120
        0x000022c0:    7960        `y      LDRB     r0,[r4,#5]
        0x000022c2:    2801        .(      CMP      r0,#1
        0x000022c4:    d002        ..      BEQ      0x22cc ; DrvUART_Open + 120
        0x000022c6:    4879        yH      LDR      r0,[pc,#484] ; [0x24ac] = 0xffff9802
        0x000022c8:    1cc0        ..      ADDS     r0,r0,#3
        0x000022ca:    e7d1        ..      B        0x2270 ; DrvUART_Open + 28
        0x000022cc:    79e0        .y      LDRB     r0,[r4,#7]
        0x000022ce:    2800        .(      CMP      r0,#0
        0x000022d0:    d014        ..      BEQ      0x22fc ; DrvUART_Open + 168
        0x000022d2:    79e0        .y      LDRB     r0,[r4,#7]
        0x000022d4:    2801        .(      CMP      r0,#1
        0x000022d6:    d011        ..      BEQ      0x22fc ; DrvUART_Open + 168
        0x000022d8:    79e0        .y      LDRB     r0,[r4,#7]
        0x000022da:    2802        .(      CMP      r0,#2
        0x000022dc:    d00e        ..      BEQ      0x22fc ; DrvUART_Open + 168
        0x000022de:    79e0        .y      LDRB     r0,[r4,#7]
        0x000022e0:    2803        .(      CMP      r0,#3
        0x000022e2:    d00b        ..      BEQ      0x22fc ; DrvUART_Open + 168
        0x000022e4:    79e0        .y      LDRB     r0,[r4,#7]
        0x000022e6:    2804        .(      CMP      r0,#4
        0x000022e8:    d008        ..      BEQ      0x22fc ; DrvUART_Open + 168
        0x000022ea:    79e0        .y      LDRB     r0,[r4,#7]
        0x000022ec:    2805        .(      CMP      r0,#5
        0x000022ee:    d005        ..      BEQ      0x22fc ; DrvUART_Open + 168
        0x000022f0:    79e0        .y      LDRB     r0,[r4,#7]
        0x000022f2:    2806        .(      CMP      r0,#6
        0x000022f4:    d002        ..      BEQ      0x22fc ; DrvUART_Open + 168
        0x000022f6:    486d        mH      LDR      r0,[pc,#436] ; [0x24ac] = 0xffff9802
        0x000022f8:    1d00        ..      ADDS     r0,r0,#4
        0x000022fa:    e7b9        ..      B        0x2270 ; DrvUART_Open + 28
        0x000022fc:    2e00        ..      CMP      r6,#0
        0x000022fe:    d11a        ..      BNE      0x2336 ; DrvUART_Open + 226
        0x00002300:    2005        .       MOVS     r0,#5
        0x00002302:    0700        ..      LSLS     r0,r0,#28
        0x00002304:    68c0        .h      LDR      r0,[r0,#0xc]
        0x00002306:    2101        .!      MOVS     r1,#1
        0x00002308:    0409        ..      LSLS     r1,r1,#16
        0x0000230a:    4388        .C      BICS     r0,r0,r1
        0x0000230c:    1840        @.      ADDS     r0,r0,r1
        0x0000230e:    2105        .!      MOVS     r1,#5
        0x00002310:    0709        ..      LSLS     r1,r1,#28
        0x00002312:    60c8        .`      STR      r0,[r1,#0xc]
        0x00002314:    4608        .F      MOV      r0,r1
        0x00002316:    68c0        .h      LDR      r0,[r0,#0xc]
        0x00002318:    2101        .!      MOVS     r1,#1
        0x0000231a:    0409        ..      LSLS     r1,r1,#16
        0x0000231c:    4388        .C      BICS     r0,r0,r1
        0x0000231e:    2105        .!      MOVS     r1,#5
        0x00002320:    0709        ..      LSLS     r1,r1,#28
        0x00002322:    60c8        .`      STR      r0,[r1,#0xc]
        0x00002324:    4862        bH      LDR      r0,[pc,#392] ; [0x24b0] = 0x50000200
        0x00002326:    6880        .h      LDR      r0,[r0,#8]
        0x00002328:    2101        .!      MOVS     r1,#1
        0x0000232a:    0409        ..      LSLS     r1,r1,#16
        0x0000232c:    4388        .C      BICS     r0,r0,r1
        0x0000232e:    1840        @.      ADDS     r0,r0,r1
        0x00002330:    495f        _I      LDR      r1,[pc,#380] ; [0x24b0] = 0x50000200
        0x00002332:    6088        .`      STR      r0,[r1,#8]
        0x00002334:    e035        5.      B        0x23a2 ; DrvUART_Open + 334
        0x00002336:    2001        .       MOVS     r0,#1
        0x00002338:    0500        ..      LSLS     r0,r0,#20
        0x0000233a:    4286        .B      CMP      r6,r0
        0x0000233c:    d117        ..      BNE      0x236e ; DrvUART_Open + 282
        0x0000233e:    2005        .       MOVS     r0,#5
        0x00002340:    0700        ..      LSLS     r0,r0,#28
        0x00002342:    68c0        .h      LDR      r0,[r0,#0xc]
        0x00002344:    10f1        ..      ASRS     r1,r6,#3
        0x00002346:    4388        .C      BICS     r0,r0,r1
        0x00002348:    1840        @.      ADDS     r0,r0,r1
        0x0000234a:    2105        .!      MOVS     r1,#5
        0x0000234c:    0709        ..      LSLS     r1,r1,#28
        0x0000234e:    60c8        .`      STR      r0,[r1,#0xc]
        0x00002350:    4608        .F      MOV      r0,r1
        0x00002352:    68c0        .h      LDR      r0,[r0,#0xc]
        0x00002354:    10f1        ..      ASRS     r1,r6,#3
        0x00002356:    4388        .C      BICS     r0,r0,r1
        0x00002358:    2105        .!      MOVS     r1,#5
        0x0000235a:    0709        ..      LSLS     r1,r1,#28
        0x0000235c:    60c8        .`      STR      r0,[r1,#0xc]
        0x0000235e:    4854        TH      LDR      r0,[pc,#336] ; [0x24b0] = 0x50000200
        0x00002360:    6880        .h      LDR      r0,[r0,#8]
        0x00002362:    10f1        ..      ASRS     r1,r6,#3
        0x00002364:    4388        .C      BICS     r0,r0,r1
        0x00002366:    1840        @.      ADDS     r0,r0,r1
        0x00002368:    4951        QI      LDR      r1,[pc,#324] ; [0x24b0] = 0x50000200
        0x0000236a:    6088        .`      STR      r0,[r1,#8]
        0x0000236c:    e019        ..      B        0x23a2 ; DrvUART_Open + 334
        0x0000236e:    2005        .       MOVS     r0,#5
        0x00002370:    0700        ..      LSLS     r0,r0,#28
        0x00002372:    68c0        .h      LDR      r0,[r0,#0xc]
        0x00002374:    2101        .!      MOVS     r1,#1
        0x00002376:    0489        ..      LSLS     r1,r1,#18
        0x00002378:    4388        .C      BICS     r0,r0,r1
        0x0000237a:    1840        @.      ADDS     r0,r0,r1
        0x0000237c:    2105        .!      MOVS     r1,#5
        0x0000237e:    0709        ..      LSLS     r1,r1,#28
        0x00002380:    60c8        .`      STR      r0,[r1,#0xc]
        0x00002382:    4608        .F      MOV      r0,r1
        0x00002384:    68c0        .h      LDR      r0,[r0,#0xc]
        0x00002386:    2101        .!      MOVS     r1,#1
        0x00002388:    0489        ..      LSLS     r1,r1,#18
        0x0000238a:    4388        .C      BICS     r0,r0,r1
        0x0000238c:    2105        .!      MOVS     r1,#5
        0x0000238e:    0709        ..      LSLS     r1,r1,#28
        0x00002390:    60c8        .`      STR      r0,[r1,#0xc]
        0x00002392:    4847        GH      LDR      r0,[pc,#284] ; [0x24b0] = 0x50000200
        0x00002394:    6880        .h      LDR      r0,[r0,#8]
        0x00002396:    2101        .!      MOVS     r1,#1
        0x00002398:    0489        ..      LSLS     r1,r1,#18
        0x0000239a:    4388        .C      BICS     r0,r0,r1
        0x0000239c:    1840        @.      ADDS     r0,r0,r1
        0x0000239e:    4944        DI      LDR      r1,[pc,#272] ; [0x24b0] = 0x50000200
        0x000023a0:    6088        .`      STR      r0,[r1,#8]
        0x000023a2:    4844        DH      LDR      r0,[pc,#272] ; [0x24b4] = 0x40050000
        0x000023a4:    1835        5.      ADDS     r5,r6,r0
        0x000023a6:    68a8        .h      LDR      r0,[r5,#8]
        0x000023a8:    2104        .!      MOVS     r1,#4
        0x000023aa:    4388        .C      BICS     r0,r0,r1
        0x000023ac:    1d00        ..      ADDS     r0,r0,#4
        0x000023ae:    60a8        .`      STR      r0,[r5,#8]
        0x000023b0:    68a8        .h      LDR      r0,[r5,#8]
        0x000023b2:    2102        .!      MOVS     r1,#2
        0x000023b4:    4388        .C      BICS     r0,r0,r1
        0x000023b6:    1c80        ..      ADDS     r0,r0,#2
        0x000023b8:    60a8        .`      STR      r0,[r5,#8]
        0x000023ba:    68a8        .h      LDR      r0,[r5,#8]
        0x000023bc:    21f0        .!      MOVS     r1,#0xf0
        0x000023be:    4388        .C      BICS     r0,r0,r1
        0x000023c0:    79e1        .y      LDRB     r1,[r4,#7]
        0x000023c2:    0109        ..      LSLS     r1,r1,#4
        0x000023c4:    22f0        ."      MOVS     r2,#0xf0
        0x000023c6:    4011        .@      ANDS     r1,r1,r2
        0x000023c8:    4308        .C      ORRS     r0,r0,r1
        0x000023ca:    60a8        .`      STR      r0,[r5,#8]
        0x000023cc:    68e8        .h      LDR      r0,[r5,#0xc]
        0x000023ce:    2120         !      MOVS     r1,#0x20
        0x000023d0:    4388        .C      BICS     r0,r0,r1
        0x000023d2:    79a1        .y      LDRB     r1,[r4,#6]
        0x000023d4:    2204        ."      MOVS     r2,#4
        0x000023d6:    4011        .@      ANDS     r1,r1,r2
        0x000023d8:    0889        ..      LSRS     r1,r1,#2
        0x000023da:    0149        I.      LSLS     r1,r1,#5
        0x000023dc:    2220         "      MOVS     r2,#0x20
        0x000023de:    4011        .@      ANDS     r1,r1,r2
        0x000023e0:    4308        .C      ORRS     r0,r0,r1
        0x000023e2:    60e8        .`      STR      r0,[r5,#0xc]
        0x000023e4:    68e8        .h      LDR      r0,[r5,#0xc]
        0x000023e6:    2110        .!      MOVS     r1,#0x10
        0x000023e8:    4388        .C      BICS     r0,r0,r1
        0x000023ea:    79a1        .y      LDRB     r1,[r4,#6]
        0x000023ec:    2202        ."      MOVS     r2,#2
        0x000023ee:    4011        .@      ANDS     r1,r1,r2
        0x000023f0:    0849        I.      LSRS     r1,r1,#1
        0x000023f2:    0109        ..      LSLS     r1,r1,#4
        0x000023f4:    2210        ."      MOVS     r2,#0x10
        0x000023f6:    4011        .@      ANDS     r1,r1,r2
        0x000023f8:    4308        .C      ORRS     r0,r0,r1
        0x000023fa:    60e8        .`      STR      r0,[r5,#0xc]
        0x000023fc:    68e8        .h      LDR      r0,[r5,#0xc]
        0x000023fe:    2108        .!      MOVS     r1,#8
        0x00002400:    4388        .C      BICS     r0,r0,r1
        0x00002402:    79a1        .y      LDRB     r1,[r4,#6]
        0x00002404:    00c9        ..      LSLS     r1,r1,#3
        0x00002406:    2208        ."      MOVS     r2,#8
        0x00002408:    4011        .@      ANDS     r1,r1,r2
        0x0000240a:    4308        .C      ORRS     r0,r0,r1
        0x0000240c:    60e8        .`      STR      r0,[r5,#0xc]
        0x0000240e:    68e8        .h      LDR      r0,[r5,#0xc]
        0x00002410:    0880        ..      LSRS     r0,r0,#2
        0x00002412:    0080        ..      LSLS     r0,r0,#2
        0x00002414:    7921        !y      LDRB     r1,[r4,#4]
        0x00002416:    0789        ..      LSLS     r1,r1,#30
        0x00002418:    0f89        ..      LSRS     r1,r1,#30
        0x0000241a:    4308        .C      ORRS     r0,r0,r1
        0x0000241c:    60e8        .`      STR      r0,[r5,#0xc]
        0x0000241e:    68e8        .h      LDR      r0,[r5,#0xc]
        0x00002420:    2104        .!      MOVS     r1,#4
        0x00002422:    4388        .C      BICS     r0,r0,r1
        0x00002424:    7961        ay      LDRB     r1,[r4,#5]
        0x00002426:    0089        ..      LSLS     r1,r1,#2
        0x00002428:    2204        ."      MOVS     r2,#4
        0x0000242a:    4011        .@      ANDS     r1,r1,r2
        0x0000242c:    4308        .C      ORRS     r0,r0,r1
        0x0000242e:    60e8        .`      STR      r0,[r5,#0xc]
        0x00002430:    6a28        (j      LDR      r0,[r5,#0x20]
        0x00002432:    0a00        ..      LSRS     r0,r0,#8
        0x00002434:    0200        ..      LSLS     r0,r0,#8
        0x00002436:    7a21        !z      LDRB     r1,[r4,#8]
        0x00002438:    4308        .C      ORRS     r0,r0,r1
        0x0000243a:    6228        (b      STR      r0,[r5,#0x20]
        0x0000243c:    481c        .H      LDR      r0,[pc,#112] ; [0x24b0] = 0x50000200
        0x0000243e:    6800        .h      LDR      r0,[r0,#0]
        0x00002440:    07c0        ..      LSLS     r0,r0,#31
        0x00002442:    0fc0        ..      LSRS     r0,r0,#31
        0x00002444:    d007        ..      BEQ      0x2456 ; DrvUART_Open + 514
        0x00002446:    481a        .H      LDR      r0,[pc,#104] ; [0x24b0] = 0x50000200
        0x00002448:    6940        @i      LDR      r0,[r0,#0x14]
        0x0000244a:    2103        .!      MOVS     r1,#3
        0x0000244c:    0609        ..      LSLS     r1,r1,#24
        0x0000244e:    4388        .C      BICS     r0,r0,r1
        0x00002450:    4917        .I      LDR      r1,[pc,#92] ; [0x24b0] = 0x50000200
        0x00002452:    6148        Ha      STR      r0,[r1,#0x14]
        0x00002454:    e020         .      B        0x2498 ; DrvUART_Open + 580
        0x00002456:    4816        .H      LDR      r0,[pc,#88] ; [0x24b0] = 0x50000200
        0x00002458:    6a00        .j      LDR      r0,[r0,#0x20]
        0x0000245a:    03c0        ..      LSLS     r0,r0,#15
        0x0000245c:    0fc0        ..      LSRS     r0,r0,#31
        0x0000245e:    d10a        ..      BNE      0x2476 ; DrvUART_Open + 546
        0x00002460:    4813        .H      LDR      r0,[pc,#76] ; [0x24b0] = 0x50000200
        0x00002462:    6940        @i      LDR      r0,[r0,#0x14]
        0x00002464:    2103        .!      MOVS     r1,#3
        0x00002466:    0609        ..      LSLS     r1,r1,#24
        0x00002468:    4388        .C      BICS     r0,r0,r1
        0x0000246a:    2101        .!      MOVS     r1,#1
        0x0000246c:    0609        ..      LSLS     r1,r1,#24
        0x0000246e:    1840        @.      ADDS     r0,r0,r1
        0x00002470:    490f        .I      LDR      r1,[pc,#60] ; [0x24b0] = 0x50000200
        0x00002472:    6148        Ha      STR      r0,[r1,#0x14]
        0x00002474:    e010        ..      B        0x2498 ; DrvUART_Open + 580
        0x00002476:    480e        .H      LDR      r0,[pc,#56] ; [0x24b0] = 0x50000200
        0x00002478:    6800        .h      LDR      r0,[r0,#0]
        0x0000247a:    0740        @.      LSLS     r0,r0,#29
        0x0000247c:    0fc0        ..      LSRS     r0,r0,#31
        0x0000247e:    d008        ..      BEQ      0x2492 ; DrvUART_Open + 574
        0x00002480:    480b        .H      LDR      r0,[pc,#44] ; [0x24b0] = 0x50000200
        0x00002482:    6940        @i      LDR      r0,[r0,#0x14]
        0x00002484:    2103        .!      MOVS     r1,#3
        0x00002486:    0609        ..      LSLS     r1,r1,#24
        0x00002488:    4388        .C      BICS     r0,r0,r1
        0x0000248a:    1840        @.      ADDS     r0,r0,r1
        0x0000248c:    4908        .I      LDR      r1,[pc,#32] ; [0x24b0] = 0x50000200
        0x0000248e:    6148        Ha      STR      r0,[r1,#0x14]
        0x00002490:    e002        ..      B        0x2498 ; DrvUART_Open + 580
        0x00002492:    4806        .H      LDR      r0,[pc,#24] ; [0x24ac] = 0xffff9802
        0x00002494:    1d80        ..      ADDS     r0,r0,#6
        0x00002496:    e6eb        ..      B        0x2270 ; DrvUART_Open + 28
        0x00002498:    f000fd9e    ....    BL       GetUartClk ; 0x2fd8
        0x0000249c:    4607        .F      MOV      r7,r0
        0x0000249e:    4632        2F      MOV      r2,r6
        0x000024a0:    6821        !h      LDR      r1,[r4,#0]
        0x000024a2:    f7fdff89    ....    BL       BaudRateCalculator ; 0x3b8
        0x000024a6:    2000        .       MOVS     r0,#0
        0x000024a8:    e6e2        ..      B        0x2270 ; DrvUART_Open + 28
    $d
        0x000024aa:    0000        ..      DCW    0
        0x000024ac:    ffff9802    ....    DCD    4294940674
        0x000024b0:    50000200    ...P    DCD    1342177792
        0x000024b4:    40050000    ...@    DCD    1074069504
    $t
    i.DrvUART_Read
    DrvUART_Read
        0x000024b8:    b570        p.      PUSH     {r4-r6,lr}
        0x000024ba:    4603        .F      MOV      r3,r0
        0x000024bc:    460c        .F      MOV      r4,r1
        0x000024be:    480c        .H      LDR      r0,[pc,#48] ; [0x24f0] = 0x40050000
        0x000024c0:    181d        ..      ADDS     r5,r3,r0
        0x000024c2:    2100        .!      MOVS     r1,#0
        0x000024c4:    e00f        ..      B        0x24e6 ; DrvUART_Read + 46
        0x000024c6:    2600        .&      MOVS     r6,#0
        0x000024c8:    e006        ..      B        0x24d8 ; DrvUART_Read + 32
        0x000024ca:    1c76        v.      ADDS     r6,r6,#1
        0x000024cc:    2001        .       MOVS     r0,#1
        0x000024ce:    0780        ..      LSLS     r0,r0,#30
        0x000024d0:    4286        .B      CMP      r6,r0
        0x000024d2:    d301        ..      BCC      0x24d8 ; DrvUART_Read + 32
        0x000024d4:    4807        .H      LDR      r0,[pc,#28] ; [0x24f4] = 0xffff9801
        0x000024d6:    bd70        p.      POP      {r4-r6,pc}
        0x000024d8:    69a8        .i      LDR      r0,[r5,#0x18]
        0x000024da:    0440        @.      LSLS     r0,r0,#17
        0x000024dc:    0fc0        ..      LSRS     r0,r0,#31
        0x000024de:    d1f4        ..      BNE      0x24ca ; DrvUART_Read + 18
        0x000024e0:    6828        (h      LDR      r0,[r5,#0]
        0x000024e2:    5460        `T      STRB     r0,[r4,r1]
        0x000024e4:    1c49        I.      ADDS     r1,r1,#1
        0x000024e6:    4291        .B      CMP      r1,r2
        0x000024e8:    d3ed        ..      BCC      0x24c6 ; DrvUART_Read + 14
        0x000024ea:    2000        .       MOVS     r0,#0
        0x000024ec:    e7f3        ..      B        0x24d6 ; DrvUART_Read + 30
    $d
        0x000024ee:    0000        ..      DCW    0
        0x000024f0:    40050000    ...@    DCD    1074069504
        0x000024f4:    ffff9801    ....    DCD    4294940673
    $t
    i.DrvUSB_BusResetCallback
    DrvUSB_BusResetCallback
        0x000024f8:    b530        0.      PUSH     {r4,r5,lr}
        0x000024fa:    4603        .F      MOV      r3,r0
        0x000024fc:    4a1f        .J      LDR      r2,[pc,#124] ; [0x257c] = 0x200003e4
        0x000024fe:    4820         H      LDR      r0,[pc,#128] ; [0x2580] = 0x40060000
        0x00002500:    6880        .h      LDR      r0,[r0,#8]
        0x00002502:    09c0        ..      LSRS     r0,r0,#7
        0x00002504:    01c0        ..      LSLS     r0,r0,#7
        0x00002506:    4c1e        .L      LDR      r4,[pc,#120] ; [0x2580] = 0x40060000
        0x00002508:    60a0        .`      STR      r0,[r4,#8]
        0x0000250a:    4620         F      MOV      r0,r4
        0x0000250c:    6800        .h      LDR      r0,[r0,#0]
        0x0000250e:    2401        .$      MOVS     r4,#1
        0x00002510:    03e4        ..      LSLS     r4,r4,#15
        0x00002512:    43a0        .C      BICS     r0,r0,r4
        0x00002514:    4c1a        .L      LDR      r4,[pc,#104] ; [0x2580] = 0x40060000
        0x00002516:    6020         `      STR      r0,[r4,#0]
        0x00002518:    f000fb28    ..(.    BL       DrvUSB_GetSetupBuffer ; 0x2b6c
        0x0000251c:    4c19        .L      LDR      r4,[pc,#100] ; [0x2584] = 0x40060100
        0x0000251e:    1b00        ..      SUBS     r0,r0,r4
        0x00002520:    4c17        .L      LDR      r4,[pc,#92] ; [0x2580] = 0x40060000
        0x00002522:    61a0        .a      STR      r0,[r4,#0x18]
        0x00002524:    2100        .!      MOVS     r1,#0
        0x00002526:    e017        ..      B        0x2558 ; DrvUSB_BusResetCallback + 96
        0x00002528:    2001        .       MOVS     r0,#1
        0x0000252a:    010c        ..      LSLS     r4,r1,#4
        0x0000252c:    4d14        .M      LDR      r5,[pc,#80] ; [0x2580] = 0x40060000
        0x0000252e:    1964        d.      ADDS     r4,r4,r5
        0x00002530:    62e0        .b      STR      r0,[r4,#0x2c]
        0x00002532:    0088        ..      LSLS     r0,r1,#2
        0x00002534:    4c14        .L      LDR      r4,[pc,#80] ; [0x2588] = 0x2000048c
        0x00002536:    5a20         Z      LDRH     r0,[r4,r0]
        0x00002538:    0580        ..      LSLS     r0,r0,#22
        0x0000253a:    0d80        ..      LSRS     r0,r0,#22
        0x0000253c:    010c        ..      LSLS     r4,r1,#4
        0x0000253e:    1964        d.      ADDS     r4,r4,r5
        0x00002540:    62a0        .b      STR      r0,[r4,#0x28]
        0x00002542:    200c        .       MOVS     r0,#0xc
        0x00002544:    4348        HC      MULS     r0,r1,r0
        0x00002546:    4c11        .L      LDR      r4,[pc,#68] ; [0x258c] = 0x20000148
        0x00002548:    1900        ..      ADDS     r0,r0,r4
        0x0000254a:    6880        .h      LDR      r0,[r0,#8]
        0x0000254c:    4c0d        .L      LDR      r4,[pc,#52] ; [0x2584] = 0x40060100
        0x0000254e:    1b00        ..      SUBS     r0,r0,r4
        0x00002550:    010c        ..      LSLS     r4,r1,#4
        0x00002552:    1964        d.      ADDS     r4,r4,r5
        0x00002554:    6220         b      STR      r0,[r4,#0x20]
        0x00002556:    1c49        I.      ADDS     r1,r1,#1
        0x00002558:    200c        .       MOVS     r0,#0xc
        0x0000255a:    4348        HC      MULS     r0,r1,r0
        0x0000255c:    4c0b        .L      LDR      r4,[pc,#44] ; [0x258c] = 0x20000148
        0x0000255e:    1900        ..      ADDS     r0,r0,r4
        0x00002560:    6840        @h      LDR      r0,[r0,#4]
        0x00002562:    2800        .(      CMP      r0,#0
        0x00002564:    d1e0        ..      BNE      0x2528 ; DrvUSB_BusResetCallback + 48
        0x00002566:    2400        .$      MOVS     r4,#0
        0x00002568:    2094        .       MOVS     r0,#0x94
        0x0000256a:    5484        .T      STRB     r4,[r0,r2]
        0x0000256c:    2095        .       MOVS     r0,#0x95
        0x0000256e:    5484        .T      STRB     r4,[r0,r2]
        0x00002570:    6fd0        .o      LDR      r0,[r2,#0x7c]
        0x00002572:    2807        .(      CMP      r0,#7
        0x00002574:    dd01        ..      BLE      0x257a ; DrvUSB_BusResetCallback + 130
        0x00002576:    2007        .       MOVS     r0,#7
        0x00002578:    67d0        .g      STR      r0,[r2,#0x7c]
        0x0000257a:    bd30        0.      POP      {r4,r5,pc}
    $d
        0x0000257c:    200003e4    ...     DCD    536871908
        0x00002580:    40060000    ...@    DCD    1074135040
        0x00002584:    40060100    ...@    DCD    1074135296
        0x00002588:    2000048c    ...     DCD    536872076
        0x0000258c:    20000148    H..     DCD    536871240
    $t
    i.DrvUSB_BusResumeCallback
    DrvUSB_BusResumeCallback
        0x00002590:    b570        p.      PUSH     {r4-r6,lr}
        0x00002592:    4605        .F      MOV      r5,r0
        0x00002594:    f000faf0    ....    BL       DrvUSB_GetUsbState ; 0x2b78
        0x00002598:    2120         !      MOVS     r1,#0x20
        0x0000259a:    4388        .C      BICS     r0,r0,r1
        0x0000259c:    4604        .F      MOV      r4,r0
        0x0000259e:    f000fc7f    ....    BL       DrvUSB_SetUsbState ; 0x2ea0
        0x000025a2:    bd70        p.      POP      {r4-r6,pc}
    i.DrvUSB_BusSuspendCallback
    DrvUSB_BusSuspendCallback
        0x000025a4:    b570        p.      PUSH     {r4-r6,lr}
        0x000025a6:    4605        .F      MOV      r5,r0
        0x000025a8:    f000fae6    ....    BL       DrvUSB_GetUsbState ; 0x2b78
        0x000025ac:    2120         !      MOVS     r1,#0x20
        0x000025ae:    4308        .C      ORRS     r0,r0,r1
        0x000025b0:    4604        .F      MOV      r4,r0
        0x000025b2:    f000fc75    ..u.    BL       DrvUSB_SetUsbState ; 0x2ea0
        0x000025b6:    bd70        p.      POP      {r4-r6,pc}
    i.DrvUSB_ClrCtrlReady
    DrvUSB_ClrCtrlReady
        0x000025b8:    b510        ..      PUSH     {r4,lr}
        0x000025ba:    2100        .!      MOVS     r1,#0
        0x000025bc:    4608        .F      MOV      r0,r1
        0x000025be:    f000fabb    ....    BL       DrvUSB_GetEpIdentity ; 0x2b38
        0x000025c2:    4604        .F      MOV      r4,r0
        0x000025c4:    0120         .      LSLS     r0,r4,#4
        0x000025c6:    490c        .I      LDR      r1,[pc,#48] ; [0x25f8] = 0x40060000
        0x000025c8:    1840        @.      ADDS     r0,r0,r1
        0x000025ca:    6ac0        .j      LDR      r0,[r0,#0x2c]
        0x000025cc:    2101        .!      MOVS     r1,#1
        0x000025ce:    4308        .C      ORRS     r0,r0,r1
        0x000025d0:    0121        !.      LSLS     r1,r4,#4
        0x000025d2:    4a09        .J      LDR      r2,[pc,#36] ; [0x25f8] = 0x40060000
        0x000025d4:    1889        ..      ADDS     r1,r1,r2
        0x000025d6:    62c8        .b      STR      r0,[r1,#0x2c]
        0x000025d8:    2180        .!      MOVS     r1,#0x80
        0x000025da:    2000        .       MOVS     r0,#0
        0x000025dc:    f000faac    ....    BL       DrvUSB_GetEpIdentity ; 0x2b38
        0x000025e0:    4604        .F      MOV      r4,r0
        0x000025e2:    0120         .      LSLS     r0,r4,#4
        0x000025e4:    4904        .I      LDR      r1,[pc,#16] ; [0x25f8] = 0x40060000
        0x000025e6:    1840        @.      ADDS     r0,r0,r1
        0x000025e8:    6ac0        .j      LDR      r0,[r0,#0x2c]
        0x000025ea:    2101        .!      MOVS     r1,#1
        0x000025ec:    4308        .C      ORRS     r0,r0,r1
        0x000025ee:    0121        !.      LSLS     r1,r4,#4
        0x000025f0:    4a01        .J      LDR      r2,[pc,#4] ; [0x25f8] = 0x40060000
        0x000025f2:    1889        ..      ADDS     r1,r1,r2
        0x000025f4:    62c8        .b      STR      r0,[r1,#0x2c]
        0x000025f6:    bd10        ..      POP      {r4,pc}
    $d
        0x000025f8:    40060000    ...@    DCD    1074135040
    $t
    i.DrvUSB_ClrCtrlReadyAndTrigStall
    DrvUSB_ClrCtrlReadyAndTrigStall
        0x000025fc:    b510        ..      PUSH     {r4,lr}
        0x000025fe:    2100        .!      MOVS     r1,#0
        0x00002600:    4608        .F      MOV      r0,r1
        0x00002602:    f000fa99    ....    BL       DrvUSB_GetEpIdentity ; 0x2b38
        0x00002606:    4604        .F      MOV      r4,r0
        0x00002608:    0120         .      LSLS     r0,r4,#4
        0x0000260a:    490c        .I      LDR      r1,[pc,#48] ; [0x263c] = 0x40060000
        0x0000260c:    1840        @.      ADDS     r0,r0,r1
        0x0000260e:    6ac0        .j      LDR      r0,[r0,#0x2c]
        0x00002610:    2103        .!      MOVS     r1,#3
        0x00002612:    4308        .C      ORRS     r0,r0,r1
        0x00002614:    0121        !.      LSLS     r1,r4,#4
        0x00002616:    4a09        .J      LDR      r2,[pc,#36] ; [0x263c] = 0x40060000
        0x00002618:    1889        ..      ADDS     r1,r1,r2
        0x0000261a:    62c8        .b      STR      r0,[r1,#0x2c]
        0x0000261c:    2180        .!      MOVS     r1,#0x80
        0x0000261e:    2000        .       MOVS     r0,#0
        0x00002620:    f000fa8a    ....    BL       DrvUSB_GetEpIdentity ; 0x2b38
        0x00002624:    4604        .F      MOV      r4,r0
        0x00002626:    0120         .      LSLS     r0,r4,#4
        0x00002628:    4904        .I      LDR      r1,[pc,#16] ; [0x263c] = 0x40060000
        0x0000262a:    1840        @.      ADDS     r0,r0,r1
        0x0000262c:    6ac0        .j      LDR      r0,[r0,#0x2c]
        0x0000262e:    2103        .!      MOVS     r1,#3
        0x00002630:    4308        .C      ORRS     r0,r0,r1
        0x00002632:    0121        !.      LSLS     r1,r4,#4
        0x00002634:    4a01        .J      LDR      r2,[pc,#4] ; [0x263c] = 0x40060000
        0x00002636:    1889        ..      ADDS     r1,r1,r2
        0x00002638:    62c8        .b      STR      r0,[r1,#0x2c]
        0x0000263a:    bd10        ..      POP      {r4,pc}
    $d
        0x0000263c:    40060000    ...@    DCD    1074135040
    $t
    i.DrvUSB_CtrlDataInAck
    DrvUSB_CtrlDataInAck
        0x00002640:    b5f8        ..      PUSH     {r3-r7,lr}
        0x00002642:    4607        .F      MOV      r7,r0
        0x00002644:    2400        .$      MOVS     r4,#0
        0x00002646:    4d11        .M      LDR      r5,[pc,#68] ; [0x268c] = 0x200003e4
        0x00002648:    2600        .&      MOVS     r6,#0
        0x0000264a:    e018        ..      B        0x267e ; DrvUSB_CtrlDataInAck + 62
        0x0000264c:    2084        .       MOVS     r0,#0x84
        0x0000264e:    5941        AY      LDR      r1,[r0,r5]
        0x00002650:    2014        .       MOVS     r0,#0x14
        0x00002652:    4370        pC      MULS     r0,r6,r0
        0x00002654:    180c        ..      ADDS     r4,r1,r0
        0x00002656:    68a0        .h      LDR      r0,[r4,#8]
        0x00002658:    2800        .(      CMP      r0,#0
        0x0000265a:    d00f        ..      BEQ      0x267c ; DrvUSB_CtrlDataInAck + 60
        0x0000265c:    7821        !x      LDRB     r1,[r4,#0]
        0x0000265e:    208c        .       MOVS     r0,#0x8c
        0x00002660:    5d40        @]      LDRB     r0,[r0,r5]
        0x00002662:    2260        `"      MOVS     r2,#0x60
        0x00002664:    4010        .@      ANDS     r0,r0,r2
        0x00002666:    4281        .B      CMP      r1,r0
        0x00002668:    d108        ..      BNE      0x267c ; DrvUSB_CtrlDataInAck + 60
        0x0000266a:    7861        ax      LDRB     r1,[r4,#1]
        0x0000266c:    208d        .       MOVS     r0,#0x8d
        0x0000266e:    5d40        @]      LDRB     r0,[r0,r5]
        0x00002670:    4281        .B      CMP      r1,r0
        0x00002672:    d103        ..      BNE      0x267c ; DrvUSB_CtrlDataInAck + 60
        0x00002674:    68a1        .h      LDR      r1,[r4,#8]
        0x00002676:    6920         i      LDR      r0,[r4,#0x10]
        0x00002678:    4788        .G      BLX      r1
        0x0000267a:    bdf8        ..      POP      {r3-r7,pc}
        0x0000267c:    1c76        v.      ADDS     r6,r6,#1
        0x0000267e:    2088        .       MOVS     r0,#0x88
        0x00002680:    5940        @Y      LDR      r0,[r0,r5]
        0x00002682:    42b0        .B      CMP      r0,r6
        0x00002684:    d8e2        ..      BHI      0x264c ; DrvUSB_CtrlDataInAck + 12
        0x00002686:    bf00        ..      NOP      
        0x00002688:    e7f7        ..      B        0x267a ; DrvUSB_CtrlDataInAck + 58
    $d
        0x0000268a:    0000        ..      DCW    0
        0x0000268c:    200003e4    ...     DCD    536871908
    $t
    i.DrvUSB_CtrlDataInSetAddress
    DrvUSB_CtrlDataInSetAddress
        0x00002690:    b500        ..      PUSH     {lr}
        0x00002692:    4603        .F      MOV      r3,r0
        0x00002694:    4a0b        .J      LDR      r2,[pc,#44] ; [0x26c4] = 0x200003e4
        0x00002696:    2094        .       MOVS     r0,#0x94
        0x00002698:    5c80        .\      LDRB     r0,[r0,r2]
        0x0000269a:    2800        .(      CMP      r0,#0
        0x0000269c:    d103        ..      BNE      0x26a6 ; DrvUSB_CtrlDataInSetAddress + 22
        0x0000269e:    2007        .       MOVS     r0,#7
        0x000026a0:    f000fbfe    ....    BL       DrvUSB_SetUsbState ; 0x2ea0
        0x000026a4:    e00d        ..      B        0x26c2 ; DrvUSB_CtrlDataInSetAddress + 50
        0x000026a6:    200f        .       MOVS     r0,#0xf
        0x000026a8:    f000fbfa    ....    BL       DrvUSB_SetUsbState ; 0x2ea0
        0x000026ac:    4806        .H      LDR      r0,[pc,#24] ; [0x26c8] = 0x40060000
        0x000026ae:    6880        .h      LDR      r0,[r0,#8]
        0x000026b0:    09c0        ..      LSRS     r0,r0,#7
        0x000026b2:    01c0        ..      LSLS     r0,r0,#7
        0x000026b4:    2194        .!      MOVS     r1,#0x94
        0x000026b6:    5c89        .\      LDRB     r1,[r1,r2]
        0x000026b8:    0649        I.      LSLS     r1,r1,#25
        0x000026ba:    0e49        I.      LSRS     r1,r1,#25
        0x000026bc:    4308        .C      ORRS     r0,r0,r1
        0x000026be:    4902        .I      LDR      r1,[pc,#8] ; [0x26c8] = 0x40060000
        0x000026c0:    6088        .`      STR      r0,[r1,#8]
        0x000026c2:    bd00        ..      POP      {pc}
    $d
        0x000026c4:    200003e4    ...     DCD    536871908
        0x000026c8:    40060000    ...@    DCD    1074135040
    $t
    i.DrvUSB_CtrlDataOutAck
    DrvUSB_CtrlDataOutAck
        0x000026cc:    b5f8        ..      PUSH     {r3-r7,lr}
        0x000026ce:    4607        .F      MOV      r7,r0
        0x000026d0:    2400        .$      MOVS     r4,#0
        0x000026d2:    4d11        .M      LDR      r5,[pc,#68] ; [0x2718] = 0x200003e4
        0x000026d4:    2600        .&      MOVS     r6,#0
        0x000026d6:    e018        ..      B        0x270a ; DrvUSB_CtrlDataOutAck + 62
        0x000026d8:    2084        .       MOVS     r0,#0x84
        0x000026da:    5941        AY      LDR      r1,[r0,r5]
        0x000026dc:    2014        .       MOVS     r0,#0x14
        0x000026de:    4370        pC      MULS     r0,r6,r0
        0x000026e0:    180c        ..      ADDS     r4,r1,r0
        0x000026e2:    68e0        .h      LDR      r0,[r4,#0xc]
        0x000026e4:    2800        .(      CMP      r0,#0
        0x000026e6:    d00f        ..      BEQ      0x2708 ; DrvUSB_CtrlDataOutAck + 60
        0x000026e8:    7821        !x      LDRB     r1,[r4,#0]
        0x000026ea:    208c        .       MOVS     r0,#0x8c
        0x000026ec:    5d40        @]      LDRB     r0,[r0,r5]
        0x000026ee:    2260        `"      MOVS     r2,#0x60
        0x000026f0:    4010        .@      ANDS     r0,r0,r2
        0x000026f2:    4281        .B      CMP      r1,r0
        0x000026f4:    d108        ..      BNE      0x2708 ; DrvUSB_CtrlDataOutAck + 60
        0x000026f6:    7861        ax      LDRB     r1,[r4,#1]
        0x000026f8:    208d        .       MOVS     r0,#0x8d
        0x000026fa:    5d40        @]      LDRB     r0,[r0,r5]
        0x000026fc:    4281        .B      CMP      r1,r0
        0x000026fe:    d103        ..      BNE      0x2708 ; DrvUSB_CtrlDataOutAck + 60
        0x00002700:    68e1        .h      LDR      r1,[r4,#0xc]
        0x00002702:    6920         i      LDR      r0,[r4,#0x10]
        0x00002704:    4788        .G      BLX      r1
        0x00002706:    bdf8        ..      POP      {r3-r7,pc}
        0x00002708:    1c76        v.      ADDS     r6,r6,#1
        0x0000270a:    2088        .       MOVS     r0,#0x88
        0x0000270c:    5940        @Y      LDR      r0,[r0,r5]
        0x0000270e:    42b0        .B      CMP      r0,r6
        0x00002710:    d8e2        ..      BHI      0x26d8 ; DrvUSB_CtrlDataOutAck + 12
        0x00002712:    bf00        ..      NOP      
        0x00002714:    e7f7        ..      B        0x2706 ; DrvUSB_CtrlDataOutAck + 58
    $d
        0x00002716:    0000        ..      DCW    0
        0x00002718:    200003e4    ...     DCD    536871908
    $t
    i.DrvUSB_CtrlSetupAck
    DrvUSB_CtrlSetupAck
        0x0000271c:    b5fe        ..      PUSH     {r1-r7,lr}
        0x0000271e:    2500        .%      MOVS     r5,#0
        0x00002720:    4e24        $N      LDR      r6,[pc,#144] ; [0x27b4] = 0x200003e4
        0x00002722:    f7ffff49    ..I.    BL       DrvUSB_ClrCtrlReady ; 0x25b8
        0x00002726:    f000fa27    ..'.    BL       DrvUSB_GetUsbState ; 0x2b78
        0x0000272a:    9001        ..      STR      r0,[sp,#4]
        0x0000272c:    9801        ..      LDR      r0,[sp,#4]
        0x0000272e:    2807        .(      CMP      r0,#7
        0x00002730:    da02        ..      BGE      0x2738 ; DrvUSB_CtrlSetupAck + 28
        0x00002732:    f7ffff63    ..c.    BL       DrvUSB_ClrCtrlReadyAndTrigStall ; 0x25fc
        0x00002736:    bdfe        ..      POP      {r1-r7,pc}
        0x00002738:    f000fa18    ....    BL       DrvUSB_GetSetupBuffer ; 0x2b6c
        0x0000273c:    9000        ..      STR      r0,[sp,#0]
        0x0000273e:    2701        .'      MOVS     r7,#1
        0x00002740:    033f        ?.      LSLS     r7,r7,#12
        0x00002742:    bf00        ..      NOP      
        0x00002744:    4638        8F      MOV      r0,r7
        0x00002746:    1e7f        ..      SUBS     r7,r7,#1
        0x00002748:    2800        .(      CMP      r0,#0
        0x0000274a:    d1fb        ..      BNE      0x2744 ; DrvUSB_CtrlSetupAck + 40
        0x0000274c:    2400        .$      MOVS     r4,#0
        0x0000274e:    e005        ..      B        0x275c ; DrvUSB_CtrlSetupAck + 64
        0x00002750:    9800        ..      LDR      r0,[sp,#0]
        0x00002752:    5d01        .]      LDRB     r1,[r0,r4]
        0x00002754:    4630        0F      MOV      r0,r6
        0x00002756:    308c        .0      ADDS     r0,r0,#0x8c
        0x00002758:    5501        .U      STRB     r1,[r0,r4]
        0x0000275a:    1c64        d.      ADDS     r4,r4,#1
        0x0000275c:    2c08        .,      CMP      r4,#8
        0x0000275e:    d3f7        ..      BCC      0x2750 ; DrvUSB_CtrlSetupAck + 52
        0x00002760:    2701        .'      MOVS     r7,#1
        0x00002762:    033f        ?.      LSLS     r7,r7,#12
        0x00002764:    bf00        ..      NOP      
        0x00002766:    4638        8F      MOV      r0,r7
        0x00002768:    1e7f        ..      SUBS     r7,r7,#1
        0x0000276a:    2800        .(      CMP      r0,#0
        0x0000276c:    d1fb        ..      BNE      0x2766 ; DrvUSB_CtrlSetupAck + 74
        0x0000276e:    2400        .$      MOVS     r4,#0
        0x00002770:    e018        ..      B        0x27a4 ; DrvUSB_CtrlSetupAck + 136
        0x00002772:    2084        .       MOVS     r0,#0x84
        0x00002774:    5981        .Y      LDR      r1,[r0,r6]
        0x00002776:    2014        .       MOVS     r0,#0x14
        0x00002778:    4360        `C      MULS     r0,r4,r0
        0x0000277a:    180d        ..      ADDS     r5,r1,r0
        0x0000277c:    6868        hh      LDR      r0,[r5,#4]
        0x0000277e:    2800        .(      CMP      r0,#0
        0x00002780:    d00f        ..      BEQ      0x27a2 ; DrvUSB_CtrlSetupAck + 134
        0x00002782:    7829        )x      LDRB     r1,[r5,#0]
        0x00002784:    208c        .       MOVS     r0,#0x8c
        0x00002786:    5d80        .]      LDRB     r0,[r0,r6]
        0x00002788:    2260        `"      MOVS     r2,#0x60
        0x0000278a:    4010        .@      ANDS     r0,r0,r2
        0x0000278c:    4281        .B      CMP      r1,r0
        0x0000278e:    d108        ..      BNE      0x27a2 ; DrvUSB_CtrlSetupAck + 134
        0x00002790:    7869        ix      LDRB     r1,[r5,#1]
        0x00002792:    208d        .       MOVS     r0,#0x8d
        0x00002794:    5d80        .]      LDRB     r0,[r0,r6]
        0x00002796:    4281        .B      CMP      r1,r0
        0x00002798:    d103        ..      BNE      0x27a2 ; DrvUSB_CtrlSetupAck + 134
        0x0000279a:    6869        ih      LDR      r1,[r5,#4]
        0x0000279c:    6928        (i      LDR      r0,[r5,#0x10]
        0x0000279e:    4788        .G      BLX      r1
        0x000027a0:    e7c9        ..      B        0x2736 ; DrvUSB_CtrlSetupAck + 26
        0x000027a2:    1c64        d.      ADDS     r4,r4,#1
        0x000027a4:    2088        .       MOVS     r0,#0x88
        0x000027a6:    5980        .Y      LDR      r0,[r0,r6]
        0x000027a8:    42a0        .B      CMP      r0,r4
        0x000027aa:    d8e2        ..      BHI      0x2772 ; DrvUSB_CtrlSetupAck + 86
        0x000027ac:    f7ffff26    ..&.    BL       DrvUSB_ClrCtrlReadyAndTrigStall ; 0x25fc
        0x000027b0:    bf00        ..      NOP      
        0x000027b2:    e7c0        ..      B        0x2736 ; DrvUSB_CtrlSetupAck + 26
    $d
        0x000027b4:    200003e4    ...     DCD    536871908
    $t
    i.DrvUSB_CtrlSetupClearSetFeature
    DrvUSB_CtrlSetupClearSetFeature
        0x000027b8:    b570        p.      PUSH     {r4-r6,lr}
        0x000027ba:    4606        .F      MOV      r6,r0
        0x000027bc:    4c2b        +L      LDR      r4,[pc,#172] ; [0x286c] = 0x200003e4
        0x000027be:    208c        .       MOVS     r0,#0x8c
        0x000027c0:    5d00        .]      LDRB     r0,[r0,r4]
        0x000027c2:    2800        .(      CMP      r0,#0
        0x000027c4:    d110        ..      BNE      0x27e8 ; DrvUSB_CtrlSetupClearSetFeature + 48
        0x000027c6:    208e        .       MOVS     r0,#0x8e
        0x000027c8:    5d00        .]      LDRB     r0,[r0,r4]
        0x000027ca:    2801        .(      CMP      r0,#1
        0x000027cc:    d10c        ..      BNE      0x27e8 ; DrvUSB_CtrlSetupClearSetFeature + 48
        0x000027ce:    208d        .       MOVS     r0,#0x8d
        0x000027d0:    5d00        .]      LDRB     r0,[r0,r4]
        0x000027d2:    2803        .(      CMP      r0,#3
        0x000027d4:    d101        ..      BNE      0x27da ; DrvUSB_CtrlSetupClearSetFeature + 34
        0x000027d6:    f000f989    ....    BL       DrvUSB_EnableRemoteWakeup ; 0x2aec
        0x000027da:    208d        .       MOVS     r0,#0x8d
        0x000027dc:    5d00        .]      LDRB     r0,[r0,r4]
        0x000027de:    2801        .(      CMP      r0,#1
        0x000027e0:    d13d        =.      BNE      0x285e ; DrvUSB_CtrlSetupClearSetFeature + 166
        0x000027e2:    f000f975    ..u.    BL       DrvUSB_DisableRemoteWakeup ; 0x2ad0
        0x000027e6:    e03a        :.      B        0x285e ; DrvUSB_CtrlSetupClearSetFeature + 166
        0x000027e8:    208c        .       MOVS     r0,#0x8c
        0x000027ea:    5d00        .]      LDRB     r0,[r0,r4]
        0x000027ec:    2801        .(      CMP      r0,#1
        0x000027ee:    d036        6.      BEQ      0x285e ; DrvUSB_CtrlSetupClearSetFeature + 166
        0x000027f0:    208c        .       MOVS     r0,#0x8c
        0x000027f2:    5d00        .]      LDRB     r0,[r0,r4]
        0x000027f4:    2802        .(      CMP      r0,#2
        0x000027f6:    d130        0.      BNE      0x285a ; DrvUSB_CtrlSetupClearSetFeature + 162
        0x000027f8:    208e        .       MOVS     r0,#0x8e
        0x000027fa:    5d00        .]      LDRB     r0,[r0,r4]
        0x000027fc:    2800        .(      CMP      r0,#0
        0x000027fe:    d12c        ,.      BNE      0x285a ; DrvUSB_CtrlSetupClearSetFeature + 162
        0x00002800:    2190        .!      MOVS     r1,#0x90
        0x00002802:    5d08        .]      LDRB     r0,[r1,r4]
        0x00002804:    f000f980    ....    BL       DrvUSB_GetEpId ; 0x2b08
        0x00002808:    4605        .F      MOV      r5,r0
        0x0000280a:    2d06        .-      CMP      r5,#6
        0x0000280c:    d222        ".      BCS      0x2854 ; DrvUSB_CtrlSetupClearSetFeature + 156
        0x0000280e:    0128        (.      LSLS     r0,r5,#4
        0x00002810:    4917        .I      LDR      r1,[pc,#92] ; [0x2870] = 0x40060000
        0x00002812:    1840        @.      ADDS     r0,r0,r1
        0x00002814:    6a80        .j      LDR      r0,[r0,#0x28]
        0x00002816:    2180        .!      MOVS     r1,#0x80
        0x00002818:    4388        .C      BICS     r0,r0,r1
        0x0000281a:    0129        ).      LSLS     r1,r5,#4
        0x0000281c:    4a14        .J      LDR      r2,[pc,#80] ; [0x2870] = 0x40060000
        0x0000281e:    1889        ..      ADDS     r1,r1,r2
        0x00002820:    6288        .b      STR      r0,[r1,#0x28]
        0x00002822:    208d        .       MOVS     r0,#0x8d
        0x00002824:    5d00        .]      LDRB     r0,[r0,r4]
        0x00002826:    2801        .(      CMP      r0,#1
        0x00002828:    d109        ..      BNE      0x283e ; DrvUSB_CtrlSetupClearSetFeature + 134
        0x0000282a:    0128        (.      LSLS     r0,r5,#4
        0x0000282c:    4611        .F      MOV      r1,r2
        0x0000282e:    1840        @.      ADDS     r0,r0,r1
        0x00002830:    6ac0        .j      LDR      r0,[r0,#0x2c]
        0x00002832:    2102        .!      MOVS     r1,#2
        0x00002834:    4388        .C      BICS     r0,r0,r1
        0x00002836:    0129        ).      LSLS     r1,r5,#4
        0x00002838:    1889        ..      ADDS     r1,r1,r2
        0x0000283a:    62c8        .b      STR      r0,[r1,#0x2c]
        0x0000283c:    e00f        ..      B        0x285e ; DrvUSB_CtrlSetupClearSetFeature + 166
        0x0000283e:    0128        (.      LSLS     r0,r5,#4
        0x00002840:    490b        .I      LDR      r1,[pc,#44] ; [0x2870] = 0x40060000
        0x00002842:    1840        @.      ADDS     r0,r0,r1
        0x00002844:    6ac0        .j      LDR      r0,[r0,#0x2c]
        0x00002846:    2102        .!      MOVS     r1,#2
        0x00002848:    4308        .C      ORRS     r0,r0,r1
        0x0000284a:    0129        ).      LSLS     r1,r5,#4
        0x0000284c:    4a08        .J      LDR      r2,[pc,#32] ; [0x2870] = 0x40060000
        0x0000284e:    1889        ..      ADDS     r1,r1,r2
        0x00002850:    62c8        .b      STR      r0,[r1,#0x2c]
        0x00002852:    e004        ..      B        0x285e ; DrvUSB_CtrlSetupClearSetFeature + 166
        0x00002854:    f7fffed2    ....    BL       DrvUSB_ClrCtrlReadyAndTrigStall ; 0x25fc
        0x00002858:    e001        ..      B        0x285e ; DrvUSB_CtrlSetupClearSetFeature + 166
        0x0000285a:    f7fffecf    ....    BL       DrvUSB_ClrCtrlReadyAndTrigStall ; 0x25fc
        0x0000285e:    2200        ."      MOVS     r2,#0
        0x00002860:    4611        .F      MOV      r1,r2
        0x00002862:    4610        .F      MOV      r0,r2
        0x00002864:    f000f8c8    ....    BL       DrvUSB_DataIn ; 0x29f8
        0x00002868:    bd70        p.      POP      {r4-r6,pc}
    $d
        0x0000286a:    0000        ..      DCW    0
        0x0000286c:    200003e4    ...     DCD    536871908
        0x00002870:    40060000    ...@    DCD    1074135040
    $t
    i.DrvUSB_CtrlSetupGetConfiguration
    DrvUSB_CtrlSetupGetConfiguration
        0x00002874:    b510        ..      PUSH     {r4,lr}
        0x00002876:    4604        .F      MOV      r4,r0
        0x00002878:    2201        ."      MOVS     r2,#1
        0x0000287a:    4902        .I      LDR      r1,[pc,#8] ; [0x2884] = 0x20000479
        0x0000287c:    2000        .       MOVS     r0,#0
        0x0000287e:    f000f8bb    ....    BL       DrvUSB_DataIn ; 0x29f8
        0x00002882:    bd10        ..      POP      {r4,pc}
    $d
        0x00002884:    20000479    y..     DCD    536872057
    $t
    i.DrvUSB_CtrlSetupGetInterface
    DrvUSB_CtrlSetupGetInterface
        0x00002888:    b518        ..      PUSH     {r3,r4,lr}
        0x0000288a:    4604        .F      MOV      r4,r0
        0x0000288c:    2000        .       MOVS     r0,#0
        0x0000288e:    9000        ..      STR      r0,[sp,#0]
        0x00002890:    2201        ."      MOVS     r2,#1
        0x00002892:    4669        iF      MOV      r1,sp
        0x00002894:    f000f8b0    ....    BL       DrvUSB_DataIn ; 0x29f8
        0x00002898:    bd18        ..      POP      {r3,r4,pc}
        0x0000289a:    0000        ..      MOVS     r0,r0
    i.DrvUSB_CtrlSetupGetStatus
    DrvUSB_CtrlSetupGetStatus
        0x0000289c:    b578        x.      PUSH     {r3-r6,lr}
        0x0000289e:    4606        .F      MOV      r6,r0
        0x000028a0:    4c1c        .L      LDR      r4,[pc,#112] ; [0x2914] = 0x200003e4
        0x000028a2:    2190        .!      MOVS     r1,#0x90
        0x000028a4:    5d08        .]      LDRB     r0,[r1,r4]
        0x000028a6:    f000f92f    ../.    BL       DrvUSB_GetEpId ; 0x2b08
        0x000028aa:    4605        .F      MOV      r5,r0
        0x000028ac:    208c        .       MOVS     r0,#0x8c
        0x000028ae:    5d00        .]      LDRB     r0,[r0,r4]
        0x000028b0:    2880        .(      CMP      r0,#0x80
        0x000028b2:    d108        ..      BNE      0x28c6 ; DrvUSB_CtrlSetupGetStatus + 42
        0x000028b4:    209c        .       MOVS     r0,#0x9c
        0x000028b6:    5d00        .]      LDRB     r0,[r0,r4]
        0x000028b8:    0040        @.      LSLS     r0,r0,#1
        0x000028ba:    2198        .!      MOVS     r1,#0x98
        0x000028bc:    5d09        .]      LDRB     r1,[r1,r4]
        0x000028be:    4308        .C      ORRS     r0,r0,r1
        0x000028c0:    4669        iF      MOV      r1,sp
        0x000028c2:    7008        .p      STRB     r0,[r1,#0]
        0x000028c4:    e01d        ..      B        0x2902 ; DrvUSB_CtrlSetupGetStatus + 102
        0x000028c6:    208c        .       MOVS     r0,#0x8c
        0x000028c8:    5d00        .]      LDRB     r0,[r0,r4]
        0x000028ca:    2881        .(      CMP      r0,#0x81
        0x000028cc:    d103        ..      BNE      0x28d6 ; DrvUSB_CtrlSetupGetStatus + 58
        0x000028ce:    2000        .       MOVS     r0,#0
        0x000028d0:    4669        iF      MOV      r1,sp
        0x000028d2:    7008        .p      STRB     r0,[r1,#0]
        0x000028d4:    e015        ..      B        0x2902 ; DrvUSB_CtrlSetupGetStatus + 102
        0x000028d6:    208c        .       MOVS     r0,#0x8c
        0x000028d8:    5d00        .]      LDRB     r0,[r0,r4]
        0x000028da:    2882        .(      CMP      r0,#0x82
        0x000028dc:    d10e        ..      BNE      0x28fc ; DrvUSB_CtrlSetupGetStatus + 96
        0x000028de:    2d06        .-      CMP      r5,#6
        0x000028e0:    d209        ..      BCS      0x28f6 ; DrvUSB_CtrlSetupGetStatus + 90
        0x000028e2:    0128        (.      LSLS     r0,r5,#4
        0x000028e4:    490c        .I      LDR      r1,[pc,#48] ; [0x2918] = 0x40060000
        0x000028e6:    1840        @.      ADDS     r0,r0,r1
        0x000028e8:    6ac0        .j      LDR      r0,[r0,#0x2c]
        0x000028ea:    2102        .!      MOVS     r1,#2
        0x000028ec:    4008        .@      ANDS     r0,r0,r1
        0x000028ee:    0840        @.      LSRS     r0,r0,#1
        0x000028f0:    4669        iF      MOV      r1,sp
        0x000028f2:    7008        .p      STRB     r0,[r1,#0]
        0x000028f4:    e005        ..      B        0x2902 ; DrvUSB_CtrlSetupGetStatus + 102
        0x000028f6:    f7fffe81    ....    BL       DrvUSB_ClrCtrlReadyAndTrigStall ; 0x25fc
        0x000028fa:    bd78        x.      POP      {r3-r6,pc}
        0x000028fc:    f7fffe7e    ..~.    BL       DrvUSB_ClrCtrlReadyAndTrigStall ; 0x25fc
        0x00002900:    e7fb        ..      B        0x28fa ; DrvUSB_CtrlSetupGetStatus + 94
        0x00002902:    2000        .       MOVS     r0,#0
        0x00002904:    4669        iF      MOV      r1,sp
        0x00002906:    7048        Hp      STRB     r0,[r1,#1]
        0x00002908:    2202        ."      MOVS     r2,#2
        0x0000290a:    f000f875    ..u.    BL       DrvUSB_DataIn ; 0x29f8
        0x0000290e:    bf00        ..      NOP      
        0x00002910:    e7f3        ..      B        0x28fa ; DrvUSB_CtrlSetupGetStatus + 94
    $d
        0x00002912:    0000        ..      DCW    0
        0x00002914:    200003e4    ...     DCD    536871908
        0x00002918:    40060000    ...@    DCD    1074135040
    $t
    i.DrvUSB_CtrlSetupSetAddress
    DrvUSB_CtrlSetupSetAddress
        0x0000291c:    b570        p.      PUSH     {r4-r6,lr}
        0x0000291e:    4606        .F      MOV      r6,r0
        0x00002920:    4c0c        .L      LDR      r4,[pc,#48] ; [0x2954] = 0x200003e4
        0x00002922:    f000f929    ..).    BL       DrvUSB_GetUsbState ; 0x2b78
        0x00002926:    4605        .F      MOV      r5,r0
        0x00002928:    2d07        .-      CMP      r5,#7
        0x0000292a:    d10f        ..      BNE      0x294c ; DrvUSB_CtrlSetupSetAddress + 48
        0x0000292c:    208e        .       MOVS     r0,#0x8e
        0x0000292e:    5d01        .]      LDRB     r1,[r0,r4]
        0x00002930:    2094        .       MOVS     r0,#0x94
        0x00002932:    5501        .U      STRB     r1,[r0,r4]
        0x00002934:    4808        .H      LDR      r0,[pc,#32] ; [0x2958] = 0x40060000
        0x00002936:    6a80        .j      LDR      r0,[r0,#0x28]
        0x00002938:    2180        .!      MOVS     r1,#0x80
        0x0000293a:    4308        .C      ORRS     r0,r0,r1
        0x0000293c:    4906        .I      LDR      r1,[pc,#24] ; [0x2958] = 0x40060000
        0x0000293e:    6288        .b      STR      r0,[r1,#0x28]
        0x00002940:    2000        .       MOVS     r0,#0
        0x00002942:    6248        Hb      STR      r0,[r1,#0x24]
        0x00002944:    200f        .       MOVS     r0,#0xf
        0x00002946:    f000faab    ....    BL       DrvUSB_SetUsbState ; 0x2ea0
        0x0000294a:    e001        ..      B        0x2950 ; DrvUSB_CtrlSetupSetAddress + 52
        0x0000294c:    f7fffe56    ..V.    BL       DrvUSB_ClrCtrlReadyAndTrigStall ; 0x25fc
        0x00002950:    bd70        p.      POP      {r4-r6,pc}
    $d
        0x00002952:    0000        ..      DCW    0
        0x00002954:    200003e4    ...     DCD    536871908
        0x00002958:    40060000    ...@    DCD    1074135040
    $t
    i.DrvUSB_CtrlSetupSetConfiguration
    DrvUSB_CtrlSetupSetConfiguration
        0x0000295c:    b5f8        ..      PUSH     {r3-r7,lr}
        0x0000295e:    4606        .F      MOV      r6,r0
        0x00002960:    4c1a        .L      LDR      r4,[pc,#104] ; [0x29cc] = 0x200003e4
        0x00002962:    20a4        .       MOVS     r0,#0xa4
        0x00002964:    5905        .Y      LDR      r5,[r0,r4]
        0x00002966:    68a8        .h      LDR      r0,[r5,#8]
        0x00002968:    2800        .(      CMP      r0,#0
        0x0000296a:    d004        ..      BEQ      0x2976 ; DrvUSB_CtrlSetupSetConfiguration + 26
        0x0000296c:    228e        ."      MOVS     r2,#0x8e
        0x0000296e:    5d10        .]      LDRB     r0,[r2,r4]
        0x00002970:    68a9        .h      LDR      r1,[r5,#8]
        0x00002972:    4788        .G      BLX      r1
        0x00002974:    e000        ..      B        0x2978 ; DrvUSB_CtrlSetupSetConfiguration + 28
        0x00002976:    2001        .       MOVS     r0,#1
        0x00002978:    4607        .F      MOV      r7,r0
        0x0000297a:    208e        .       MOVS     r0,#0x8e
        0x0000297c:    5d00        .]      LDRB     r0,[r0,r4]
        0x0000297e:    2800        .(      CMP      r0,#0
        0x00002980:    d10c        ..      BNE      0x299c ; DrvUSB_CtrlSetupSetConfiguration + 64
        0x00002982:    200f        .       MOVS     r0,#0xf
        0x00002984:    f000fa8c    ....    BL       DrvUSB_SetUsbState ; 0x2ea0
        0x00002988:    208e        .       MOVS     r0,#0x8e
        0x0000298a:    5d01        .]      LDRB     r1,[r0,r4]
        0x0000298c:    2095        .       MOVS     r0,#0x95
        0x0000298e:    5501        .U      STRB     r1,[r0,r4]
        0x00002990:    2200        ."      MOVS     r2,#0
        0x00002992:    4611        .F      MOV      r1,r2
        0x00002994:    4610        .F      MOV      r0,r2
        0x00002996:    f000f82f    ../.    BL       DrvUSB_DataIn ; 0x29f8
        0x0000299a:    e016        ..      B        0x29ca ; DrvUSB_CtrlSetupSetConfiguration + 110
        0x0000299c:    2f00        ./      CMP      r7,#0
        0x0000299e:    d012        ..      BEQ      0x29c6 ; DrvUSB_CtrlSetupSetConfiguration + 106
        0x000029a0:    201f        .       MOVS     r0,#0x1f
        0x000029a2:    f000fa7d    ..}.    BL       DrvUSB_SetUsbState ; 0x2ea0
        0x000029a6:    6868        hh      LDR      r0,[r5,#4]
        0x000029a8:    2800        .(      CMP      r0,#0
        0x000029aa:    d002        ..      BEQ      0x29b2 ; DrvUSB_CtrlSetupSetConfiguration + 86
        0x000029ac:    4630        0F      MOV      r0,r6
        0x000029ae:    6869        ih      LDR      r1,[r5,#4]
        0x000029b0:    4788        .G      BLX      r1
        0x000029b2:    208e        .       MOVS     r0,#0x8e
        0x000029b4:    5d01        .]      LDRB     r1,[r0,r4]
        0x000029b6:    2095        .       MOVS     r0,#0x95
        0x000029b8:    5501        .U      STRB     r1,[r0,r4]
        0x000029ba:    2200        ."      MOVS     r2,#0
        0x000029bc:    4611        .F      MOV      r1,r2
        0x000029be:    4610        .F      MOV      r0,r2
        0x000029c0:    f000f81a    ....    BL       DrvUSB_DataIn ; 0x29f8
        0x000029c4:    e001        ..      B        0x29ca ; DrvUSB_CtrlSetupSetConfiguration + 110
        0x000029c6:    f7fffe19    ....    BL       DrvUSB_ClrCtrlReadyAndTrigStall ; 0x25fc
        0x000029ca:    bdf8        ..      POP      {r3-r7,pc}
    $d
        0x000029cc:    200003e4    ...     DCD    536871908
    $t
    i.DrvUSB_CtrlSetupSetInterface
    DrvUSB_CtrlSetupSetInterface
        0x000029d0:    b570        p.      PUSH     {r4-r6,lr}
        0x000029d2:    4605        .F      MOV      r5,r0
        0x000029d4:    4e07        .N      LDR      r6,[pc,#28] ; [0x29f4] = 0x200003e4
        0x000029d6:    20a4        .       MOVS     r0,#0xa4
        0x000029d8:    5984        .Y      LDR      r4,[r0,r6]
        0x000029da:    6860        `h      LDR      r0,[r4,#4]
        0x000029dc:    2800        .(      CMP      r0,#0
        0x000029de:    d002        ..      BEQ      0x29e6 ; DrvUSB_CtrlSetupSetInterface + 22
        0x000029e0:    4628        (F      MOV      r0,r5
        0x000029e2:    6861        ah      LDR      r1,[r4,#4]
        0x000029e4:    4788        .G      BLX      r1
        0x000029e6:    2200        ."      MOVS     r2,#0
        0x000029e8:    4611        .F      MOV      r1,r2
        0x000029ea:    4610        .F      MOV      r0,r2
        0x000029ec:    f000f804    ....    BL       DrvUSB_DataIn ; 0x29f8
        0x000029f0:    bd70        p.      POP      {r4-r6,pc}
    $d
        0x000029f2:    0000        ..      DCW    0
        0x000029f4:    200003e4    ...     DCD    536871908
    $t
    i.DrvUSB_DataIn
    DrvUSB_DataIn
        0x000029f8:    b5f7        ..      PUSH     {r0-r2,r4-r7,lr}
        0x000029fa:    460f        .F      MOV      r7,r1
        0x000029fc:    4616        .F      MOV      r6,r2
        0x000029fe:    4d2f        /M      LDR      r5,[pc,#188] ; [0x2abc] = 0x200003e4
        0x00002a00:    2180        .!      MOVS     r1,#0x80
        0x00002a02:    9800        ..      LDR      r0,[sp,#0]
        0x00002a04:    f000f898    ....    BL       DrvUSB_GetEpIdentity ; 0x2b38
        0x00002a08:    4604        .F      MOV      r4,r0
        0x00002a0a:    200c        .       MOVS     r0,#0xc
        0x00002a0c:    4360        `C      MULS     r0,r4,r0
        0x00002a0e:    4629        )F      MOV      r1,r5
        0x00002a10:    3128        (1      ADDS     r1,r1,#0x28
        0x00002a12:    1840        @.      ADDS     r0,r0,r1
        0x00002a14:    6840        @h      LDR      r0,[r0,#4]
        0x00002a16:    42b0        .B      CMP      r0,r6
        0x00002a18:    d201        ..      BCS      0x2a1e ; DrvUSB_DataIn + 38
        0x00002a1a:    4829        )H      LDR      r0,[pc,#164] ; [0x2ac0] = 0xffff9903
        0x00002a1c:    bdfe        ..      POP      {r1-r7,pc}
        0x00002a1e:    2f00        ./      CMP      r7,#0
        0x00002a20:    d00b        ..      BEQ      0x2a3a ; DrvUSB_DataIn + 66
        0x00002a22:    2e00        ..      CMP      r6,#0
        0x00002a24:    d009        ..      BEQ      0x2a3a ; DrvUSB_DataIn + 66
        0x00002a26:    210c        .!      MOVS     r1,#0xc
        0x00002a28:    4361        aC      MULS     r1,r4,r1
        0x00002a2a:    462a        *F      MOV      r2,r5
        0x00002a2c:    3228        (2      ADDS     r2,r2,#0x28
        0x00002a2e:    1889        ..      ADDS     r1,r1,r2
        0x00002a30:    4632        2F      MOV      r2,r6
        0x00002a32:    6888        .h      LDR      r0,[r1,#8]
        0x00002a34:    4639        9F      MOV      r1,r7
        0x00002a36:    f001f9b1    ....    BL       WordsCpy ; 0x3d9c
        0x00002a3a:    200c        .       MOVS     r0,#0xc
        0x00002a3c:    4360        `C      MULS     r0,r4,r0
        0x00002a3e:    4629        )F      MOV      r1,r5
        0x00002a40:    3128        (1      ADDS     r1,r1,#0x28
        0x00002a42:    1840        @.      ADDS     r0,r0,r1
        0x00002a44:    6880        .h      LDR      r0,[r0,#8]
        0x00002a46:    491f        .I      LDR      r1,[pc,#124] ; [0x2ac4] = 0x40060100
        0x00002a48:    1a40        @.      SUBS     r0,r0,r1
        0x00002a4a:    0121        !.      LSLS     r1,r4,#4
        0x00002a4c:    4a1e        .J      LDR      r2,[pc,#120] ; [0x2ac8] = 0x40060000
        0x00002a4e:    1889        ..      ADDS     r1,r1,r2
        0x00002a50:    6208        .b      STR      r0,[r1,#0x20]
        0x00002a52:    2f00        ./      CMP      r7,#0
        0x00002a54:    d107        ..      BNE      0x2a66 ; DrvUSB_DataIn + 110
        0x00002a56:    2e00        ..      CMP      r6,#0
        0x00002a58:    d105        ..      BNE      0x2a66 ; DrvUSB_DataIn + 110
        0x00002a5a:    2100        .!      MOVS     r1,#0
        0x00002a5c:    00a2        ..      LSLS     r2,r4,#2
        0x00002a5e:    4628        (F      MOV      r0,r5
        0x00002a60:    3010        .0      ADDS     r0,r0,#0x10
        0x00002a62:    5081        .P      STR      r1,[r0,r2]
        0x00002a64:    e00c        ..      B        0x2a80 ; DrvUSB_DataIn + 136
        0x00002a66:    00a1        ..      LSLS     r1,r4,#2
        0x00002a68:    4628        (F      MOV      r0,r5
        0x00002a6a:    3010        .0      ADDS     r0,r0,#0x10
        0x00002a6c:    5840        @X      LDR      r0,[r0,r1]
        0x00002a6e:    2800        .(      CMP      r0,#0
        0x00002a70:    d101        ..      BNE      0x2a76 ; DrvUSB_DataIn + 126
        0x00002a72:    2101        .!      MOVS     r1,#1
        0x00002a74:    e000        ..      B        0x2a78 ; DrvUSB_DataIn + 128
        0x00002a76:    2100        .!      MOVS     r1,#0
        0x00002a78:    00a2        ..      LSLS     r2,r4,#2
        0x00002a7a:    4628        (F      MOV      r0,r5
        0x00002a7c:    3010        .0      ADDS     r0,r0,#0x10
        0x00002a7e:    5081        .P      STR      r1,[r0,r2]
        0x00002a80:    00a1        ..      LSLS     r1,r4,#2
        0x00002a82:    4628        (F      MOV      r0,r5
        0x00002a84:    3010        .0      ADDS     r0,r0,#0x10
        0x00002a86:    5840        @X      LDR      r0,[r0,r1]
        0x00002a88:    2800        .(      CMP      r0,#0
        0x00002a8a:    d006        ..      BEQ      0x2a9a ; DrvUSB_DataIn + 162
        0x00002a8c:    0120         .      LSLS     r0,r4,#4
        0x00002a8e:    490e        .I      LDR      r1,[pc,#56] ; [0x2ac8] = 0x40060000
        0x00002a90:    1840        @.      ADDS     r0,r0,r1
        0x00002a92:    6a80        .j      LDR      r0,[r0,#0x28]
        0x00002a94:    490d        .I      LDR      r1,[pc,#52] ; [0x2acc] = 0x37f
        0x00002a96:    4008        .@      ANDS     r0,r0,r1
        0x00002a98:    e005        ..      B        0x2aa6 ; DrvUSB_DataIn + 174
        0x00002a9a:    0120         .      LSLS     r0,r4,#4
        0x00002a9c:    490a        .I      LDR      r1,[pc,#40] ; [0x2ac8] = 0x40060000
        0x00002a9e:    1840        @.      ADDS     r0,r0,r1
        0x00002aa0:    6a80        .j      LDR      r0,[r0,#0x28]
        0x00002aa2:    2180        .!      MOVS     r1,#0x80
        0x00002aa4:    4308        .C      ORRS     r0,r0,r1
        0x00002aa6:    0121        !.      LSLS     r1,r4,#4
        0x00002aa8:    4a07        .J      LDR      r2,[pc,#28] ; [0x2ac8] = 0x40060000
        0x00002aaa:    1889        ..      ADDS     r1,r1,r2
        0x00002aac:    6288        .b      STR      r0,[r1,#0x28]
        0x00002aae:    0120         .      LSLS     r0,r4,#4
        0x00002ab0:    4611        .F      MOV      r1,r2
        0x00002ab2:    1840        @.      ADDS     r0,r0,r1
        0x00002ab4:    6246        Fb      STR      r6,[r0,#0x24]
        0x00002ab6:    2000        .       MOVS     r0,#0
        0x00002ab8:    e7b0        ..      B        0x2a1c ; DrvUSB_DataIn + 36
    $d
        0x00002aba:    0000        ..      DCW    0
        0x00002abc:    200003e4    ...     DCD    536871908
        0x00002ac0:    ffff9903    ....    DCD    4294940931
        0x00002ac4:    40060100    ...@    DCD    1074135296
        0x00002ac8:    40060000    ...@    DCD    1074135040
        0x00002acc:    0000037f    ....    DCD    895
    $t
    i.DrvUSB_DisableRemoteWakeup
    DrvUSB_DisableRemoteWakeup
        0x00002ad0:    2100        .!      MOVS     r1,#0
        0x00002ad2:    4801        .H      LDR      r0,[pc,#4] ; [0x2ad8] = 0x20000464
        0x00002ad4:    61c1        .a      STR      r1,[r0,#0x1c]
        0x00002ad6:    4770        pG      BX       lr
    $d
        0x00002ad8:    20000464    d..     DCD    536872036
    $t
    i.DrvUSB_DisableUsb
    DrvUSB_DisableUsb
        0x00002adc:    213b        ;!      MOVS     r1,#0x3b
        0x00002ade:    0149        I.      LSLS     r1,r1,#5
        0x00002ae0:    4a01        .J      LDR      r2,[pc,#4] ; [0x2ae8] = 0x40060000
        0x00002ae2:    6111        .a      STR      r1,[r2,#0x10]
        0x00002ae4:    4770        pG      BX       lr
    $d
        0x00002ae6:    0000        ..      DCW    0
        0x00002ae8:    40060000    ...@    DCD    1074135040
    $t
    i.DrvUSB_EnableRemoteWakeup
    DrvUSB_EnableRemoteWakeup
        0x00002aec:    2101        .!      MOVS     r1,#1
        0x00002aee:    4801        .H      LDR      r0,[pc,#4] ; [0x2af4] = 0x20000464
        0x00002af0:    61c1        .a      STR      r1,[r0,#0x1c]
        0x00002af2:    4770        pG      BX       lr
    $d
        0x00002af4:    20000464    d..     DCD    536872036
    $t
    i.DrvUSB_EnableUsb
    DrvUSB_EnableUsb
        0x00002af8:    217d        }!      MOVS     r1,#0x7d
        0x00002afa:    0109        ..      LSLS     r1,r1,#4
        0x00002afc:    4a01        .J      LDR      r2,[pc,#4] ; [0x2b04] = 0x40060000
        0x00002afe:    6111        .a      STR      r1,[r2,#0x10]
        0x00002b00:    4770        pG      BX       lr
    $d
        0x00002b02:    0000        ..      DCW    0
        0x00002b04:    40060000    ...@    DCD    1074135040
    $t
    i.DrvUSB_GetEpId
    DrvUSB_GetEpId
        0x00002b08:    b510        ..      PUSH     {r4,lr}
        0x00002b0a:    4602        .F      MOV      r2,r0
        0x00002b0c:    4b08        .K      LDR      r3,[pc,#32] ; [0x2b30] = 0x200003e4
        0x00002b0e:    2100        .!      MOVS     r1,#0
        0x00002b10:    e009        ..      B        0x2b26 ; DrvUSB_GetEpId + 30
        0x00002b12:    200c        .       MOVS     r0,#0xc
        0x00002b14:    4348        HC      MULS     r0,r1,r0
        0x00002b16:    461c        .F      MOV      r4,r3
        0x00002b18:    3428        (4      ADDS     r4,r4,#0x28
        0x00002b1a:    5820         X      LDR      r0,[r4,r0]
        0x00002b1c:    4290        .B      CMP      r0,r2
        0x00002b1e:    d101        ..      BNE      0x2b24 ; DrvUSB_GetEpId + 28
        0x00002b20:    4608        .F      MOV      r0,r1
        0x00002b22:    bd10        ..      POP      {r4,pc}
        0x00002b24:    1c49        I.      ADDS     r1,r1,#1
        0x00002b26:    2906        .)      CMP      r1,#6
        0x00002b28:    d3f3        ..      BCC      0x2b12 ; DrvUSB_GetEpId + 10
        0x00002b2a:    4802        .H      LDR      r0,[pc,#8] ; [0x2b34] = 0xffff9902
        0x00002b2c:    e7f9        ..      B        0x2b22 ; DrvUSB_GetEpId + 26
    $d
        0x00002b2e:    0000        ..      DCW    0
        0x00002b30:    200003e4    ...     DCD    536871908
        0x00002b34:    ffff9902    ....    DCD    4294940930
    $t
    i.DrvUSB_GetEpIdentity
    DrvUSB_GetEpIdentity
        0x00002b38:    b530        0.      PUSH     {r4,r5,lr}
        0x00002b3a:    4602        .F      MOV      r2,r0
        0x00002b3c:    460b        .F      MOV      r3,r1
        0x00002b3e:    4c09        .L      LDR      r4,[pc,#36] ; [0x2b64] = 0x200003e4
        0x00002b40:    2100        .!      MOVS     r1,#0
        0x00002b42:    e00b        ..      B        0x2b5c ; DrvUSB_GetEpIdentity + 36
        0x00002b44:    200c        .       MOVS     r0,#0xc
        0x00002b46:    4348        HC      MULS     r0,r1,r0
        0x00002b48:    4625        %F      MOV      r5,r4
        0x00002b4a:    3528        (5      ADDS     r5,r5,#0x28
        0x00002b4c:    582d        -X      LDR      r5,[r5,r0]
        0x00002b4e:    4610        .F      MOV      r0,r2
        0x00002b50:    4318        .C      ORRS     r0,r0,r3
        0x00002b52:    4285        .B      CMP      r5,r0
        0x00002b54:    d101        ..      BNE      0x2b5a ; DrvUSB_GetEpIdentity + 34
        0x00002b56:    4608        .F      MOV      r0,r1
        0x00002b58:    bd30        0.      POP      {r4,r5,pc}
        0x00002b5a:    1c49        I.      ADDS     r1,r1,#1
        0x00002b5c:    2906        .)      CMP      r1,#6
        0x00002b5e:    d3f1        ..      BCC      0x2b44 ; DrvUSB_GetEpIdentity + 12
        0x00002b60:    4801        .H      LDR      r0,[pc,#4] ; [0x2b68] = 0xffff9902
        0x00002b62:    e7f9        ..      B        0x2b58 ; DrvUSB_GetEpIdentity + 32
    $d
        0x00002b64:    200003e4    ...     DCD    536871908
        0x00002b68:    ffff9902    ....    DCD    4294940930
    $t
    i.DrvUSB_GetSetupBuffer
    DrvUSB_GetSetupBuffer
        0x00002b6c:    4801        .H      LDR      r0,[pc,#4] ; [0x2b74] = 0x200003e4
        0x00002b6e:    6f80        .o      LDR      r0,[r0,#0x78]
        0x00002b70:    4770        pG      BX       lr
    $d
        0x00002b72:    0000        ..      DCW    0
        0x00002b74:    200003e4    ...     DCD    536871908
    $t
    i.DrvUSB_GetUsbState
    DrvUSB_GetUsbState
        0x00002b78:    4801        .H      LDR      r0,[pc,#4] ; [0x2b80] = 0x200003e4
        0x00002b7a:    6fc0        .o      LDR      r0,[r0,#0x7c]
        0x00002b7c:    b2c0        ..      UXTB     r0,r0
        0x00002b7e:    4770        pG      BX       lr
    $d
        0x00002b80:    200003e4    ...     DCD    536871908
    $t
    i.DrvUSB_PreDispatchBusEvent
    DrvUSB_PreDispatchBusEvent
        0x00002b84:    6801        .h      LDR      r1,[r0,#0]
        0x00002b86:    6fc2        .o      LDR      r2,[r0,#0x7c]
        0x00002b88:    2a00        .*      CMP      r2,#0
        0x00002b8a:    d100        ..      BNE      0x2b8e ; DrvUSB_PreDispatchBusEvent + 10
        0x00002b8c:    4770        pG      BX       lr
        0x00002b8e:    07ca        ..      LSLS     r2,r1,#31
        0x00002b90:    0fd2        ..      LSRS     r2,r2,#31
        0x00002b92:    d00c        ..      BEQ      0x2bae ; DrvUSB_PreDispatchBusEvent + 42
        0x00002b94:    227d        }"      MOVS     r2,#0x7d
        0x00002b96:    0112        ..      LSLS     r2,r2,#4
        0x00002b98:    4b1a        .K      LDR      r3,[pc,#104] ; [0x2c04] = 0x40060000
        0x00002b9a:    611a        .a      STR      r2,[r3,#0x10]
        0x00002b9c:    2207        ."      MOVS     r2,#7
        0x00002b9e:    67c2        .g      STR      r2,[r0,#0x7c]
        0x00002ba0:    2280        ."      MOVS     r2,#0x80
        0x00002ba2:    5a12        .Z      LDRH     r2,[r2,r0]
        0x00002ba4:    2304        .#      MOVS     r3,#4
        0x00002ba6:    431a        .C      ORRS     r2,r2,r3
        0x00002ba8:    2380        .#      MOVS     r3,#0x80
        0x00002baa:    521a        .R      STRH     r2,[r3,r0]
        0x00002bac:    e028        (.      B        0x2c00 ; DrvUSB_PreDispatchBusEvent + 124
        0x00002bae:    2202        ."      MOVS     r2,#2
        0x00002bb0:    4211        .B      TST      r1,r2
        0x00002bb2:    d011        ..      BEQ      0x2bd8 ; DrvUSB_PreDispatchBusEvent + 84
        0x00002bb4:    221f        ."      MOVS     r2,#0x1f
        0x00002bb6:    0192        ..      LSLS     r2,r2,#6
        0x00002bb8:    4b12        .K      LDR      r3,[pc,#72] ; [0x2c04] = 0x40060000
        0x00002bba:    611a        .a      STR      r2,[r3,#0x10]
        0x00002bbc:    6fc2        .o      LDR      r2,[r0,#0x7c]
        0x00002bbe:    2a01        .*      CMP      r2,#1
        0x00002bc0:    db03        ..      BLT      0x2bca ; DrvUSB_PreDispatchBusEvent + 70
        0x00002bc2:    2320         #      MOVS     r3,#0x20
        0x00002bc4:    6fc2        .o      LDR      r2,[r0,#0x7c]
        0x00002bc6:    431a        .C      ORRS     r2,r2,r3
        0x00002bc8:    67c2        .g      STR      r2,[r0,#0x7c]
        0x00002bca:    2280        ."      MOVS     r2,#0x80
        0x00002bcc:    5a12        .Z      LDRH     r2,[r2,r0]
        0x00002bce:    2308        .#      MOVS     r3,#8
        0x00002bd0:    431a        .C      ORRS     r2,r2,r3
        0x00002bd2:    2380        .#      MOVS     r3,#0x80
        0x00002bd4:    521a        .R      STRH     r2,[r3,r0]
        0x00002bd6:    e013        ..      B        0x2c00 ; DrvUSB_PreDispatchBusEvent + 124
        0x00002bd8:    2204        ."      MOVS     r2,#4
        0x00002bda:    4211        .B      TST      r1,r2
        0x00002bdc:    d010        ..      BEQ      0x2c00 ; DrvUSB_PreDispatchBusEvent + 124
        0x00002bde:    227d        }"      MOVS     r2,#0x7d
        0x00002be0:    0112        ..      LSLS     r2,r2,#4
        0x00002be2:    4b08        .K      LDR      r3,[pc,#32] ; [0x2c04] = 0x40060000
        0x00002be4:    611a        .a      STR      r2,[r3,#0x10]
        0x00002be6:    6fc2        .o      LDR      r2,[r0,#0x7c]
        0x00002be8:    2a01        .*      CMP      r2,#1
        0x00002bea:    db03        ..      BLT      0x2bf4 ; DrvUSB_PreDispatchBusEvent + 112
        0x00002bec:    2320         #      MOVS     r3,#0x20
        0x00002bee:    6fc2        .o      LDR      r2,[r0,#0x7c]
        0x00002bf0:    439a        .C      BICS     r2,r2,r3
        0x00002bf2:    67c2        .g      STR      r2,[r0,#0x7c]
        0x00002bf4:    2280        ."      MOVS     r2,#0x80
        0x00002bf6:    5a12        .Z      LDRH     r2,[r2,r0]
        0x00002bf8:    2310        .#      MOVS     r3,#0x10
        0x00002bfa:    431a        .C      ORRS     r2,r2,r3
        0x00002bfc:    2380        .#      MOVS     r3,#0x80
        0x00002bfe:    521a        .R      STRH     r2,[r3,r0]
        0x00002c00:    bf00        ..      NOP      
        0x00002c02:    e7c3        ..      B        0x2b8c ; DrvUSB_PreDispatchBusEvent + 8
    $d
        0x00002c04:    40060000    ...@    DCD    1074135040
    $t
    i.DrvUSB_PreDispatchEPEvent
    DrvUSB_PreDispatchEPEvent
        0x00002c08:    b5f0        ..      PUSH     {r4-r7,lr}
        0x00002c0a:    b085        ..      SUB      sp,sp,#0x14
        0x00002c0c:    4604        .F      MOV      r4,r0
        0x00002c0e:    68e0        .h      LDR      r0,[r4,#0xc]
        0x00002c10:    9003        ..      STR      r0,[sp,#0xc]
        0x00002c12:    6860        `h      LDR      r0,[r4,#4]
        0x00002c14:    9002        ..      STR      r0,[sp,#8]
        0x00002c16:    6fe0        .o      LDR      r0,[r4,#0x7c]
        0x00002c18:    2800        .(      CMP      r0,#0
        0x00002c1a:    d101        ..      BNE      0x2c20 ; DrvUSB_PreDispatchEPEvent + 24
        0x00002c1c:    b005        ..      ADD      sp,sp,#0x14
        0x00002c1e:    bdf0        ..      POP      {r4-r7,pc}
        0x00002c20:    494f        OI      LDR      r1,[pc,#316] ; [0x2d60] = 0x803f0000
        0x00002c22:    9803        ..      LDR      r0,[sp,#0xc]
        0x00002c24:    4008        .@      ANDS     r0,r0,r1
        0x00002c26:    9003        ..      STR      r0,[sp,#0xc]
        0x00002c28:    9803        ..      LDR      r0,[sp,#0xc]
        0x00002c2a:    0fc0        ..      LSRS     r0,r0,#31
        0x00002c2c:    07c0        ..      LSLS     r0,r0,#31
        0x00002c2e:    d00a        ..      BEQ      0x2c46 ; DrvUSB_PreDispatchEPEvent + 62
        0x00002c30:    2080        .       MOVS     r0,#0x80
        0x00002c32:    5b00        .[      LDRH     r0,[r0,r4]
        0x00002c34:    2120         !      MOVS     r1,#0x20
        0x00002c36:    4308        .C      ORRS     r0,r0,r1
        0x00002c38:    2180        .!      MOVS     r1,#0x80
        0x00002c3a:    5308        .S      STRH     r0,[r1,r4]
        0x00002c3c:    0608        ..      LSLS     r0,r1,#24
        0x00002c3e:    4949        II      LDR      r1,[pc,#292] ; [0x2d64] = 0x40060000
        0x00002c40:    6048        H`      STR      r0,[r1,#4]
        0x00002c42:    2001        .       MOVS     r0,#1
        0x00002c44:    6120         a      STR      r0,[r4,#0x10]
        0x00002c46:    4847        GH      LDR      r0,[pc,#284] ; [0x2d64] = 0x40060000
        0x00002c48:    6840        @h      LDR      r0,[r0,#4]
        0x00002c4a:    9003        ..      STR      r0,[sp,#0xc]
        0x00002c4c:    21ff        .!      MOVS     r1,#0xff
        0x00002c4e:    0409        ..      LSLS     r1,r1,#16
        0x00002c50:    9803        ..      LDR      r0,[sp,#0xc]
        0x00002c52:    4008        .@      ANDS     r0,r0,r1
        0x00002c54:    4943        CI      LDR      r1,[pc,#268] ; [0x2d64] = 0x40060000
        0x00002c56:    6048        H`      STR      r0,[r1,#4]
        0x00002c58:    2010        .       MOVS     r0,#0x10
        0x00002c5a:    9000        ..      STR      r0,[sp,#0]
        0x00002c5c:    e07b        {.      B        0x2d56 ; DrvUSB_PreDispatchEPEvent + 334
        0x00002c5e:    2001        .       MOVS     r0,#1
        0x00002c60:    9900        ..      LDR      r1,[sp,#0]
        0x00002c62:    4088        .@      LSLS     r0,r0,r1
        0x00002c64:    9903        ..      LDR      r1,[sp,#0xc]
        0x00002c66:    4208        .B      TST      r0,r1
        0x00002c68:    d072        r.      BEQ      0x2d50 ; DrvUSB_PreDispatchEPEvent + 328
        0x00002c6a:    9800        ..      LDR      r0,[sp,#0]
        0x00002c6c:    4606        .F      MOV      r6,r0
        0x00002c6e:    3e10        .>      SUBS     r6,r6,#0x10
        0x00002c70:    0130        0.      LSLS     r0,r6,#4
        0x00002c72:    493c        <I      LDR      r1,[pc,#240] ; [0x2d64] = 0x40060000
        0x00002c74:    1840        @.      ADDS     r0,r0,r1
        0x00002c76:    6a80        .j      LDR      r0,[r0,#0x28]
        0x00002c78:    0705        ..      LSLS     r5,r0,#28
        0x00002c7a:    0f2d        -.      LSRS     r5,r5,#28
        0x00002c7c:    0070        p.      LSLS     r0,r6,#1
        0x00002c7e:    1831        1.      ADDS     r1,r6,r0
        0x00002c80:    1d09        ..      ADDS     r1,r1,#4
        0x00002c82:    9802        ..      LDR      r0,[sp,#8]
        0x00002c84:    40c8        .@      LSRS     r0,r0,r1
        0x00002c86:    2170        p!      MOVS     r1,#0x70
        0x00002c88:    4607        .F      MOV      r7,r0
        0x00002c8a:    400f        .@      ANDS     r7,r7,r1
        0x00002c8c:    2f00        ./      CMP      r7,#0
        0x00002c8e:    d109        ..      BNE      0x2ca4 ; DrvUSB_PreDispatchEPEvent + 156
        0x00002c90:    2082        .       MOVS     r0,#0x82
        0x00002c92:    5b00        .[      LDRH     r0,[r0,r4]
        0x00002c94:    006a        j.      LSLS     r2,r5,#1
        0x00002c96:    2101        .!      MOVS     r1,#1
        0x00002c98:    4091        .@      LSLS     r1,r1,r2
        0x00002c9a:    4308        .C      ORRS     r0,r0,r1
        0x00002c9c:    b281        ..      UXTH     r1,r0
        0x00002c9e:    2082        .       MOVS     r0,#0x82
        0x00002ca0:    5301        .S      STRH     r1,[r0,r4]
        0x00002ca2:    e055        U.      B        0x2d50 ; DrvUSB_PreDispatchEPEvent + 328
        0x00002ca4:    2f20         /      CMP      r7,#0x20
        0x00002ca6:    d10e        ..      BNE      0x2cc6 ; DrvUSB_PreDispatchEPEvent + 190
        0x00002ca8:    2082        .       MOVS     r0,#0x82
        0x00002caa:    5b01        .[      LDRH     r1,[r0,r4]
        0x00002cac:    0068        h.      LSLS     r0,r5,#1
        0x00002cae:    1c40        @.      ADDS     r0,r0,#1
        0x00002cb0:    2201        ."      MOVS     r2,#1
        0x00002cb2:    4082        .@      LSLS     r2,r2,r0
        0x00002cb4:    4311        .C      ORRS     r1,r1,r2
        0x00002cb6:    2082        .       MOVS     r0,#0x82
        0x00002cb8:    5301        .S      STRH     r1,[r0,r4]
        0x00002cba:    2101        .!      MOVS     r1,#1
        0x00002cbc:    00b2        ..      LSLS     r2,r6,#2
        0x00002cbe:    4620         F      MOV      r0,r4
        0x00002cc0:    3010        .0      ADDS     r0,r0,#0x10
        0x00002cc2:    5081        .P      STR      r1,[r0,r2]
        0x00002cc4:    e044        D.      B        0x2d50 ; DrvUSB_PreDispatchEPEvent + 328
        0x00002cc6:    2f60        `/      CMP      r7,#0x60
        0x00002cc8:    d10f        ..      BNE      0x2cea ; DrvUSB_PreDispatchEPEvent + 226
        0x00002cca:    2082        .       MOVS     r0,#0x82
        0x00002ccc:    5b00        .[      LDRH     r0,[r0,r4]
        0x00002cce:    0069        i.      LSLS     r1,r5,#1
        0x00002cd0:    1c49        I.      ADDS     r1,r1,#1
        0x00002cd2:    2201        ."      MOVS     r2,#1
        0x00002cd4:    408a        .@      LSLS     r2,r2,r1
        0x00002cd6:    4310        .C      ORRS     r0,r0,r2
        0x00002cd8:    b281        ..      UXTH     r1,r0
        0x00002cda:    2082        .       MOVS     r0,#0x82
        0x00002cdc:    5301        .S      STRH     r1,[r0,r4]
        0x00002cde:    2100        .!      MOVS     r1,#0
        0x00002ce0:    00b2        ..      LSLS     r2,r6,#2
        0x00002ce2:    4620         F      MOV      r0,r4
        0x00002ce4:    3010        .0      ADDS     r0,r0,#0x10
        0x00002ce6:    5081        .P      STR      r1,[r0,r2]
        0x00002ce8:    e032        2.      B        0x2d50 ; DrvUSB_PreDispatchEPEvent + 328
        0x00002cea:    2f70        p/      CMP      r7,#0x70
        0x00002cec:    d130        0.      BNE      0x2d50 ; DrvUSB_PreDispatchEPEvent + 328
        0x00002cee:    0130        0.      LSLS     r0,r6,#4
        0x00002cf0:    491c        .I      LDR      r1,[pc,#112] ; [0x2d64] = 0x40060000
        0x00002cf2:    1840        @.      ADDS     r0,r0,r1
        0x00002cf4:    6a80        .j      LDR      r0,[r0,#0x28]
        0x00002cf6:    2160        `!      MOVS     r1,#0x60
        0x00002cf8:    4008        .@      ANDS     r0,r0,r1
        0x00002cfa:    9001        ..      STR      r0,[sp,#4]
        0x00002cfc:    2100        .!      MOVS     r1,#0
        0x00002cfe:    00b2        ..      LSLS     r2,r6,#2
        0x00002d00:    4620         F      MOV      r0,r4
        0x00002d02:    3010        .0      ADDS     r0,r0,#0x10
        0x00002d04:    5081        .P      STR      r1,[r0,r2]
        0x00002d06:    9801        ..      LDR      r0,[sp,#4]
        0x00002d08:    2820         (      CMP      r0,#0x20
        0x00002d0a:    d112        ..      BNE      0x2d32 ; DrvUSB_PreDispatchEPEvent + 298
        0x00002d0c:    0068        h.      LSLS     r0,r5,#1
        0x00002d0e:    1c40        @.      ADDS     r0,r0,#1
        0x00002d10:    00c0        ..      LSLS     r0,r0,#3
        0x00002d12:    4915        .I      LDR      r1,[pc,#84] ; [0x2d68] = 0x200001a8
        0x00002d14:    5808        .X      LDR      r0,[r1,r0]
        0x00002d16:    2800        .(      CMP      r0,#0
        0x00002d18:    d01a        ..      BEQ      0x2d50 ; DrvUSB_PreDispatchEPEvent + 328
        0x00002d1a:    006a        j.      LSLS     r2,r5,#1
        0x00002d1c:    1c52        R.      ADDS     r2,r2,#1
        0x00002d1e:    00d2        ..      LSLS     r2,r2,#3
        0x00002d20:    460b        .F      MOV      r3,r1
        0x00002d22:    18d2        ..      ADDS     r2,r2,r3
        0x00002d24:    6850        Ph      LDR      r0,[r2,#4]
        0x00002d26:    006a        j.      LSLS     r2,r5,#1
        0x00002d28:    1c52        R.      ADDS     r2,r2,#1
        0x00002d2a:    00d2        ..      LSLS     r2,r2,#3
        0x00002d2c:    5899        .X      LDR      r1,[r3,r2]
        0x00002d2e:    4788        .G      BLX      r1
        0x00002d30:    e00e        ..      B        0x2d50 ; DrvUSB_PreDispatchEPEvent + 328
        0x00002d32:    9801        ..      LDR      r0,[sp,#4]
        0x00002d34:    2840        @(      CMP      r0,#0x40
        0x00002d36:    d10b        ..      BNE      0x2d50 ; DrvUSB_PreDispatchEPEvent + 328
        0x00002d38:    0128        (.      LSLS     r0,r5,#4
        0x00002d3a:    490b        .I      LDR      r1,[pc,#44] ; [0x2d68] = 0x200001a8
        0x00002d3c:    5808        .X      LDR      r0,[r1,r0]
        0x00002d3e:    2800        .(      CMP      r0,#0
        0x00002d40:    d006        ..      BEQ      0x2d50 ; DrvUSB_PreDispatchEPEvent + 328
        0x00002d42:    012a        *.      LSLS     r2,r5,#4
        0x00002d44:    460b        .F      MOV      r3,r1
        0x00002d46:    18d2        ..      ADDS     r2,r2,r3
        0x00002d48:    6850        Ph      LDR      r0,[r2,#4]
        0x00002d4a:    012a        *.      LSLS     r2,r5,#4
        0x00002d4c:    5899        .X      LDR      r1,[r3,r2]
        0x00002d4e:    4788        .G      BLX      r1
        0x00002d50:    9800        ..      LDR      r0,[sp,#0]
        0x00002d52:    1c40        @.      ADDS     r0,r0,#1
        0x00002d54:    9000        ..      STR      r0,[sp,#0]
        0x00002d56:    9800        ..      LDR      r0,[sp,#0]
        0x00002d58:    2816        .(      CMP      r0,#0x16
        0x00002d5a:    db80        ..      BLT      0x2c5e ; DrvUSB_PreDispatchEPEvent + 86
        0x00002d5c:    bf00        ..      NOP      
        0x00002d5e:    e75d        ].      B        0x2c1c ; DrvUSB_PreDispatchEPEvent + 20
    $d
        0x00002d60:    803f0000    ..?.    DCD    2151612416
        0x00002d64:    40060000    ...@    DCD    1074135040
        0x00002d68:    200001a8    ...     DCD    536871336
    $t
    i.DrvUSB_PreDispatchEvent
    DrvUSB_PreDispatchEvent
        0x00002d6c:    b510        ..      PUSH     {r4,lr}
        0x00002d6e:    481f        .H      LDR      r0,[pc,#124] ; [0x2dec] = 0x40060000
        0x00002d70:    6840        @h      LDR      r0,[r0,#4]
        0x00002d72:    491f        .I      LDR      r1,[pc,#124] ; [0x2df0] = 0x200003e4
        0x00002d74:    60c8        .`      STR      r0,[r1,#0xc]
        0x00002d76:    4608        .F      MOV      r0,r1
        0x00002d78:    68c0        .h      LDR      r0,[r0,#0xc]
        0x00002d7a:    2108        .!      MOVS     r1,#8
        0x00002d7c:    4208        .B      TST      r0,r1
        0x00002d7e:    d006        ..      BEQ      0x2d8e ; DrvUSB_PreDispatchEvent + 34
        0x00002d80:    2008        .       MOVS     r0,#8
        0x00002d82:    491a        .I      LDR      r1,[pc,#104] ; [0x2dec] = 0x40060000
        0x00002d84:    6048        H`      STR      r0,[r1,#4]
        0x00002d86:    481a        .H      LDR      r0,[pc,#104] ; [0x2df0] = 0x200003e4
        0x00002d88:    f000f855    ..U.    BL       DrvUSB_PreDispatchWakeupEvent ; 0x2e36
        0x00002d8c:    e02d        -.      B        0x2dea ; DrvUSB_PreDispatchEvent + 126
        0x00002d8e:    4818        .H      LDR      r0,[pc,#96] ; [0x2df0] = 0x200003e4
        0x00002d90:    68c0        .h      LDR      r0,[r0,#0xc]
        0x00002d92:    2104        .!      MOVS     r1,#4
        0x00002d94:    4208        .B      TST      r0,r1
        0x00002d96:    d00c        ..      BEQ      0x2db2 ; DrvUSB_PreDispatchEvent + 70
        0x00002d98:    4814        .H      LDR      r0,[pc,#80] ; [0x2dec] = 0x40060000
        0x00002d9a:    6940        @i      LDR      r0,[r0,#0x14]
        0x00002d9c:    07c0        ..      LSLS     r0,r0,#31
        0x00002d9e:    0fc0        ..      LSRS     r0,r0,#31
        0x00002da0:    4913        .I      LDR      r1,[pc,#76] ; [0x2df0] = 0x200003e4
        0x00002da2:    6088        .`      STR      r0,[r1,#8]
        0x00002da4:    2004        .       MOVS     r0,#4
        0x00002da6:    4911        .I      LDR      r1,[pc,#68] ; [0x2dec] = 0x40060000
        0x00002da8:    6048        H`      STR      r0,[r1,#4]
        0x00002daa:    4811        .H      LDR      r0,[pc,#68] ; [0x2df0] = 0x200003e4
        0x00002dac:    f000f822    ..".    BL       DrvUSB_PreDispatchFDTEvent ; 0x2df4
        0x00002db0:    e01b        ..      B        0x2dea ; DrvUSB_PreDispatchEvent + 126
        0x00002db2:    480f        .H      LDR      r0,[pc,#60] ; [0x2df0] = 0x200003e4
        0x00002db4:    7b00        .{      LDRB     r0,[r0,#0xc]
        0x00002db6:    07c0        ..      LSLS     r0,r0,#31
        0x00002db8:    0fc0        ..      LSRS     r0,r0,#31
        0x00002dba:    d00a        ..      BEQ      0x2dd2 ; DrvUSB_PreDispatchEvent + 102
        0x00002dbc:    480b        .H      LDR      r0,[pc,#44] ; [0x2dec] = 0x40060000
        0x00002dbe:    6900        .i      LDR      r0,[r0,#0x10]
        0x00002dc0:    490b        .I      LDR      r1,[pc,#44] ; [0x2df0] = 0x200003e4
        0x00002dc2:    6008        .`      STR      r0,[r1,#0]
        0x00002dc4:    2001        .       MOVS     r0,#1
        0x00002dc6:    4909        .I      LDR      r1,[pc,#36] ; [0x2dec] = 0x40060000
        0x00002dc8:    6048        H`      STR      r0,[r1,#4]
        0x00002dca:    4809        .H      LDR      r0,[pc,#36] ; [0x2df0] = 0x200003e4
        0x00002dcc:    f7fffeda    ....    BL       DrvUSB_PreDispatchBusEvent ; 0x2b84
        0x00002dd0:    e00b        ..      B        0x2dea ; DrvUSB_PreDispatchEvent + 126
        0x00002dd2:    4807        .H      LDR      r0,[pc,#28] ; [0x2df0] = 0x200003e4
        0x00002dd4:    68c0        .h      LDR      r0,[r0,#0xc]
        0x00002dd6:    2102        .!      MOVS     r1,#2
        0x00002dd8:    4208        .B      TST      r0,r1
        0x00002dda:    d006        ..      BEQ      0x2dea ; DrvUSB_PreDispatchEvent + 126
        0x00002ddc:    4803        .H      LDR      r0,[pc,#12] ; [0x2dec] = 0x40060000
        0x00002dde:    68c0        .h      LDR      r0,[r0,#0xc]
        0x00002de0:    4903        .I      LDR      r1,[pc,#12] ; [0x2df0] = 0x200003e4
        0x00002de2:    6048        H`      STR      r0,[r1,#4]
        0x00002de4:    4608        .F      MOV      r0,r1
        0x00002de6:    f7ffff0f    ....    BL       DrvUSB_PreDispatchEPEvent ; 0x2c08
        0x00002dea:    bd10        ..      POP      {r4,pc}
    $d
        0x00002dec:    40060000    ...@    DCD    1074135040
        0x00002df0:    200003e4    ...     DCD    536871908
    $t
    i.DrvUSB_PreDispatchFDTEvent
    DrvUSB_PreDispatchFDTEvent
        0x00002df4:    b510        ..      PUSH     {r4,lr}
        0x00002df6:    4603        .F      MOV      r3,r0
        0x00002df8:    689c        .h      LDR      r4,[r3,#8]
        0x00002dfa:    07e0        ..      LSLS     r0,r4,#31
        0x00002dfc:    0fc0        ..      LSRS     r0,r0,#31
        0x00002dfe:    d00e        ..      BEQ      0x2e1e ; DrvUSB_PreDispatchFDTEvent + 42
        0x00002e00:    6fd8        .o      LDR      r0,[r3,#0x7c]
        0x00002e02:    2800        .(      CMP      r0,#0
        0x00002e04:    d104        ..      BNE      0x2e10 ; DrvUSB_PreDispatchFDTEvent + 28
        0x00002e06:    2001        .       MOVS     r0,#1
        0x00002e08:    67d8        .g      STR      r0,[r3,#0x7c]
        0x00002e0a:    4618        .F      MOV      r0,r3
        0x00002e0c:    f7fffe74    ..t.    BL       DrvUSB_EnableUsb ; 0x2af8
        0x00002e10:    2080        .       MOVS     r0,#0x80
        0x00002e12:    5ac0        .Z      LDRH     r0,[r0,r3]
        0x00002e14:    2101        .!      MOVS     r1,#1
        0x00002e16:    4308        .C      ORRS     r0,r0,r1
        0x00002e18:    2180        .!      MOVS     r1,#0x80
        0x00002e1a:    52c8        .R      STRH     r0,[r1,r3]
        0x00002e1c:    e00a        ..      B        0x2e34 ; DrvUSB_PreDispatchFDTEvent + 64
        0x00002e1e:    2000        .       MOVS     r0,#0
        0x00002e20:    67d8        .g      STR      r0,[r3,#0x7c]
        0x00002e22:    4618        .F      MOV      r0,r3
        0x00002e24:    f7fffe5a    ..Z.    BL       DrvUSB_DisableUsb ; 0x2adc
        0x00002e28:    2080        .       MOVS     r0,#0x80
        0x00002e2a:    5ac0        .Z      LDRH     r0,[r0,r3]
        0x00002e2c:    2102        .!      MOVS     r1,#2
        0x00002e2e:    4308        .C      ORRS     r0,r0,r1
        0x00002e30:    2180        .!      MOVS     r1,#0x80
        0x00002e32:    52c8        .R      STRH     r0,[r1,r3]
        0x00002e34:    bd10        ..      POP      {r4,pc}
    i.DrvUSB_PreDispatchWakeupEvent
    DrvUSB_PreDispatchWakeupEvent
        0x00002e36:    4770        pG      BX       lr
    i.DrvUSB_Reset
    DrvUSB_Reset
        0x00002e38:    b530        0.      PUSH     {r4,r5,lr}
        0x00002e3a:    4605        .F      MOV      r5,r0
        0x00002e3c:    2180        .!      MOVS     r1,#0x80
        0x00002e3e:    4628        (F      MOV      r0,r5
        0x00002e40:    f7fffe7a    ..z.    BL       DrvUSB_GetEpIdentity ; 0x2b38
        0x00002e44:    4604        .F      MOV      r4,r0
        0x00002e46:    4813        .H      LDR      r0,[pc,#76] ; [0x2e94] = 0xffff9902
        0x00002e48:    4284        .B      CMP      r4,r0
        0x00002e4a:    d00c        ..      BEQ      0x2e66 ; DrvUSB_Reset + 46
        0x00002e4c:    00a0        ..      LSLS     r0,r4,#2
        0x00002e4e:    4912        .I      LDR      r1,[pc,#72] ; [0x2e98] = 0x2000048c
        0x00002e50:    5a08        .Z      LDRH     r0,[r1,r0]
        0x00002e52:    0580        ..      LSLS     r0,r0,#22
        0x00002e54:    0d80        ..      LSRS     r0,r0,#22
        0x00002e56:    0121        !.      LSLS     r1,r4,#4
        0x00002e58:    4a10        .J      LDR      r2,[pc,#64] ; [0x2e9c] = 0x40060000
        0x00002e5a:    1889        ..      ADDS     r1,r1,r2
        0x00002e5c:    6288        .b      STR      r0,[r1,#0x28]
        0x00002e5e:    2001        .       MOVS     r0,#1
        0x00002e60:    0121        !.      LSLS     r1,r4,#4
        0x00002e62:    1889        ..      ADDS     r1,r1,r2
        0x00002e64:    62c8        .b      STR      r0,[r1,#0x2c]
        0x00002e66:    2100        .!      MOVS     r1,#0
        0x00002e68:    4628        (F      MOV      r0,r5
        0x00002e6a:    f7fffe65    ..e.    BL       DrvUSB_GetEpIdentity ; 0x2b38
        0x00002e6e:    4604        .F      MOV      r4,r0
        0x00002e70:    4808        .H      LDR      r0,[pc,#32] ; [0x2e94] = 0xffff9902
        0x00002e72:    4284        .B      CMP      r4,r0
        0x00002e74:    d00c        ..      BEQ      0x2e90 ; DrvUSB_Reset + 88
        0x00002e76:    00a0        ..      LSLS     r0,r4,#2
        0x00002e78:    4907        .I      LDR      r1,[pc,#28] ; [0x2e98] = 0x2000048c
        0x00002e7a:    5a08        .Z      LDRH     r0,[r1,r0]
        0x00002e7c:    0580        ..      LSLS     r0,r0,#22
        0x00002e7e:    0d80        ..      LSRS     r0,r0,#22
        0x00002e80:    0121        !.      LSLS     r1,r4,#4
        0x00002e82:    4a06        .J      LDR      r2,[pc,#24] ; [0x2e9c] = 0x40060000
        0x00002e84:    1889        ..      ADDS     r1,r1,r2
        0x00002e86:    6288        .b      STR      r0,[r1,#0x28]
        0x00002e88:    2001        .       MOVS     r0,#1
        0x00002e8a:    0121        !.      LSLS     r1,r4,#4
        0x00002e8c:    1889        ..      ADDS     r1,r1,r2
        0x00002e8e:    62c8        .b      STR      r0,[r1,#0x2c]
        0x00002e90:    bd30        0.      POP      {r4,r5,pc}
    $d
        0x00002e92:    0000        ..      DCW    0
        0x00002e94:    ffff9902    ....    DCD    4294940930
        0x00002e98:    2000048c    ...     DCD    536872076
        0x00002e9c:    40060000    ...@    DCD    1074135040
    $t
    i.DrvUSB_SetUsbState
    DrvUSB_SetUsbState
        0x00002ea0:    4901        .I      LDR      r1,[pc,#4] ; [0x2ea8] = 0x200003e4
        0x00002ea2:    67c8        .g      STR      r0,[r1,#0x7c]
        0x00002ea4:    4770        pG      BX       lr
    $d
        0x00002ea6:    0000        ..      DCW    0
        0x00002ea8:    200003e4    ...     DCD    536871908
    $t
    i.EINT0_IRQHandler
    EINT0_IRQHandler
        0x00002eac:    b510        ..      PUSH     {r4,lr}
        0x00002eae:    2001        .       MOVS     r0,#1
        0x00002eb0:    0380        ..      LSLS     r0,r0,#14
        0x00002eb2:    4905        .I      LDR      r1,[pc,#20] ; [0x2ec8] = 0x50004040
        0x00002eb4:    6208        .b      STR      r0,[r1,#0x20]
        0x00002eb6:    4805        .H      LDR      r0,[pc,#20] ; [0x2ecc] = 0x200000b8
        0x00002eb8:    6800        .h      LDR      r0,[r0,#0]
        0x00002eba:    2800        .(      CMP      r0,#0
        0x00002ebc:    d002        ..      BEQ      0x2ec4 ; EINT0_IRQHandler + 24
        0x00002ebe:    4803        .H      LDR      r0,[pc,#12] ; [0x2ecc] = 0x200000b8
        0x00002ec0:    6800        .h      LDR      r0,[r0,#0]
        0x00002ec2:    4780        .G      BLX      r0
        0x00002ec4:    bd10        ..      POP      {r4,pc}
    $d
        0x00002ec6:    0000        ..      DCW    0
        0x00002ec8:    50004040    @@.P    DCD    1342193728
        0x00002ecc:    200000b8    ...     DCD    536871096
    $t
    i.EINT1_IRQHandler
    EINT1_IRQHandler
        0x00002ed0:    b510        ..      PUSH     {r4,lr}
        0x00002ed2:    2001        .       MOVS     r0,#1
        0x00002ed4:    03c0        ..      LSLS     r0,r0,#15
        0x00002ed6:    4905        .I      LDR      r1,[pc,#20] ; [0x2eec] = 0x50004040
        0x00002ed8:    6208        .b      STR      r0,[r1,#0x20]
        0x00002eda:    4805        .H      LDR      r0,[pc,#20] ; [0x2ef0] = 0x200000bc
        0x00002edc:    6800        .h      LDR      r0,[r0,#0]
        0x00002ede:    2800        .(      CMP      r0,#0
        0x00002ee0:    d002        ..      BEQ      0x2ee8 ; EINT1_IRQHandler + 24
        0x00002ee2:    4803        .H      LDR      r0,[pc,#12] ; [0x2ef0] = 0x200000bc
        0x00002ee4:    6800        .h      LDR      r0,[r0,#0]
        0x00002ee6:    4780        .G      BLX      r0
        0x00002ee8:    bd10        ..      POP      {r4,pc}
    $d
        0x00002eea:    0000        ..      DCW    0
        0x00002eec:    50004040    @@.P    DCD    1342193728
        0x00002ef0:    200000bc    ...     DCD    536871100
    $t
    i.GPAB_IRQHandler
    GPAB_IRQHandler
        0x00002ef4:    b570        p.      PUSH     {r4-r6,lr}
        0x00002ef6:    480c        .H      LDR      r0,[pc,#48] ; [0x2f28] = 0x50004000
        0x00002ef8:    6a05        .j      LDR      r5,[r0,#0x20]
        0x00002efa:    480b        .H      LDR      r0,[pc,#44] ; [0x2f28] = 0x50004000
        0x00002efc:    3040        @0      ADDS     r0,r0,#0x40
        0x00002efe:    6a04        .j      LDR      r4,[r0,#0x20]
        0x00002f00:    2103        .!      MOVS     r1,#3
        0x00002f02:    0389        ..      LSLS     r1,r1,#14
        0x00002f04:    4620         F      MOV      r0,r4
        0x00002f06:    4388        .C      BICS     r0,r0,r1
        0x00002f08:    4604        .F      MOV      r4,r0
        0x00002f0a:    4807        .H      LDR      r0,[pc,#28] ; [0x2f28] = 0x50004000
        0x00002f0c:    6205        .b      STR      r5,[r0,#0x20]
        0x00002f0e:    4806        .H      LDR      r0,[pc,#24] ; [0x2f28] = 0x50004000
        0x00002f10:    3040        @0      ADDS     r0,r0,#0x40
        0x00002f12:    6204        .b      STR      r4,[r0,#0x20]
        0x00002f14:    4805        .H      LDR      r0,[pc,#20] ; [0x2f2c] = 0x200000b0
        0x00002f16:    6800        .h      LDR      r0,[r0,#0]
        0x00002f18:    2800        .(      CMP      r0,#0
        0x00002f1a:    d004        ..      BEQ      0x2f26 ; GPAB_IRQHandler + 50
        0x00002f1c:    4621        !F      MOV      r1,r4
        0x00002f1e:    4628        (F      MOV      r0,r5
        0x00002f20:    4a02        .J      LDR      r2,[pc,#8] ; [0x2f2c] = 0x200000b0
        0x00002f22:    6812        .h      LDR      r2,[r2,#0]
        0x00002f24:    4790        .G      BLX      r2
        0x00002f26:    bd70        p.      POP      {r4-r6,pc}
    $d
        0x00002f28:    50004000    .@.P    DCD    1342193664
        0x00002f2c:    200000b0    ...     DCD    536871088
    $t
    i.GPCDE_IRQHandler
    GPCDE_IRQHandler
        0x00002f30:    b570        p.      PUSH     {r4-r6,lr}
        0x00002f32:    480d        .H      LDR      r0,[pc,#52] ; [0x2f68] = 0x50004080
        0x00002f34:    6a06        .j      LDR      r6,[r0,#0x20]
        0x00002f36:    480c        .H      LDR      r0,[pc,#48] ; [0x2f68] = 0x50004080
        0x00002f38:    3040        @0      ADDS     r0,r0,#0x40
        0x00002f3a:    6a04        .j      LDR      r4,[r0,#0x20]
        0x00002f3c:    480a        .H      LDR      r0,[pc,#40] ; [0x2f68] = 0x50004080
        0x00002f3e:    3080        .0      ADDS     r0,r0,#0x80
        0x00002f40:    6a05        .j      LDR      r5,[r0,#0x20]
        0x00002f42:    4809        .H      LDR      r0,[pc,#36] ; [0x2f68] = 0x50004080
        0x00002f44:    6206        .b      STR      r6,[r0,#0x20]
        0x00002f46:    4808        .H      LDR      r0,[pc,#32] ; [0x2f68] = 0x50004080
        0x00002f48:    3040        @0      ADDS     r0,r0,#0x40
        0x00002f4a:    6204        .b      STR      r4,[r0,#0x20]
        0x00002f4c:    4806        .H      LDR      r0,[pc,#24] ; [0x2f68] = 0x50004080
        0x00002f4e:    3080        .0      ADDS     r0,r0,#0x80
        0x00002f50:    6205        .b      STR      r5,[r0,#0x20]
        0x00002f52:    4806        .H      LDR      r0,[pc,#24] ; [0x2f6c] = 0x200000b4
        0x00002f54:    6800        .h      LDR      r0,[r0,#0]
        0x00002f56:    2800        .(      CMP      r0,#0
        0x00002f58:    d005        ..      BEQ      0x2f66 ; GPCDE_IRQHandler + 54
        0x00002f5a:    462a        *F      MOV      r2,r5
        0x00002f5c:    4621        !F      MOV      r1,r4
        0x00002f5e:    4630        0F      MOV      r0,r6
        0x00002f60:    4b02        .K      LDR      r3,[pc,#8] ; [0x2f6c] = 0x200000b4
        0x00002f62:    681b        .h      LDR      r3,[r3,#0]
        0x00002f64:    4798        .G      BLX      r3
        0x00002f66:    bd70        p.      POP      {r4-r6,pc}
    $d
        0x00002f68:    50004080    .@.P    DCD    1342193792
        0x00002f6c:    200000b4    ...     DCD    536871092
    $t
    i.GetTimerClock
    GetTimerClock
        0x00002f70:    b570        p.      PUSH     {r4-r6,lr}
        0x00002f72:    4604        .F      MOV      r4,r0
        0x00002f74:    2600        .&      MOVS     r6,#0
        0x00002f76:    2c00        .,      CMP      r4,#0
        0x00002f78:    d005        ..      BEQ      0x2f86 ; GetTimerClock + 22
        0x00002f7a:    2c01        .,      CMP      r4,#1
        0x00002f7c:    d003        ..      BEQ      0x2f86 ; GetTimerClock + 22
        0x00002f7e:    2c02        .,      CMP      r4,#2
        0x00002f80:    d001        ..      BEQ      0x2f86 ; GetTimerClock + 22
        0x00002f82:    2c03        .,      CMP      r4,#3
        0x00002f84:    d11c        ..      BNE      0x2fc0 ; GetTimerClock + 80
        0x00002f86:    4811        .H      LDR      r0,[pc,#68] ; [0x2fcc] = 0x50000200
        0x00002f88:    6940        @i      LDR      r0,[r0,#0x14]
        0x00002f8a:    00a1        ..      LSLS     r1,r4,#2
        0x00002f8c:    3108        .1      ADDS     r1,r1,#8
        0x00002f8e:    40c8        .@      LSRS     r0,r0,r1
        0x00002f90:    0745        E.      LSLS     r5,r0,#29
        0x00002f92:    0f6d        m.      LSRS     r5,r5,#29
        0x00002f94:    2d00        .-      CMP      r5,#0
        0x00002f96:    d103        ..      BNE      0x2fa0 ; GetTimerClock + 48
        0x00002f98:    f7fefc56    ..V.    BL       DrvSYS_GetExtClockFreq ; 0x1848
        0x00002f9c:    4606        .F      MOV      r6,r0
        0x00002f9e:    e012        ..      B        0x2fc6 ; GetTimerClock + 86
        0x00002fa0:    2d01        .-      CMP      r5,#1
        0x00002fa2:    d101        ..      BNE      0x2fa8 ; GetTimerClock + 56
        0x00002fa4:    03ee        ..      LSLS     r6,r5,#15
        0x00002fa6:    e00e        ..      B        0x2fc6 ; GetTimerClock + 86
        0x00002fa8:    2d02        .-      CMP      r5,#2
        0x00002faa:    d103        ..      BNE      0x2fb4 ; GetTimerClock + 68
        0x00002fac:    f7fefc50    ..P.    BL       DrvSYS_GetHCLKFreq ; 0x1850
        0x00002fb0:    4606        .F      MOV      r6,r0
        0x00002fb2:    e008        ..      B        0x2fc6 ; GetTimerClock + 86
        0x00002fb4:    2d07        .-      CMP      r5,#7
        0x00002fb6:    d101        ..      BNE      0x2fbc ; GetTimerClock + 76
        0x00002fb8:    4e05        .N      LDR      r6,[pc,#20] ; [0x2fd0] = 0x1518000
        0x00002fba:    e004        ..      B        0x2fc6 ; GetTimerClock + 86
        0x00002fbc:    4805        .H      LDR      r0,[pc,#20] ; [0x2fd4] = 0xffff9702
        0x00002fbe:    bd70        p.      POP      {r4-r6,pc}
        0x00002fc0:    4804        .H      LDR      r0,[pc,#16] ; [0x2fd4] = 0xffff9702
        0x00002fc2:    1e40        @.      SUBS     r0,r0,#1
        0x00002fc4:    e7fb        ..      B        0x2fbe ; GetTimerClock + 78
        0x00002fc6:    4630        0F      MOV      r0,r6
        0x00002fc8:    e7f9        ..      B        0x2fbe ; GetTimerClock + 78
    $d
        0x00002fca:    0000        ..      DCW    0
        0x00002fcc:    50000200    ...P    DCD    1342177792
        0x00002fd0:    01518000    ..Q.    DCD    22118400
        0x00002fd4:    ffff9702    ....    DCD    4294940418
    $t
    i.GetUartClk
    GetUartClk
        0x00002fd8:    b570        p.      PUSH     {r4-r6,lr}
        0x00002fda:    2400        .$      MOVS     r4,#0
        0x00002fdc:    480e        .H      LDR      r0,[pc,#56] ; [0x3018] = 0x50000200
        0x00002fde:    6980        .i      LDR      r0,[r0,#0x18]
        0x00002fe0:    0500        ..      LSLS     r0,r0,#20
        0x00002fe2:    0f05        ..      LSRS     r5,r0,#28
        0x00002fe4:    480c        .H      LDR      r0,[pc,#48] ; [0x3018] = 0x50000200
        0x00002fe6:    6940        @i      LDR      r0,[r0,#0x14]
        0x00002fe8:    0180        ..      LSLS     r0,r0,#6
        0x00002fea:    0f80        ..      LSRS     r0,r0,#30
        0x00002fec:    d103        ..      BNE      0x2ff6 ; GetUartClk + 30
        0x00002fee:    f7fefc2b    ..+.    BL       DrvSYS_GetExtClockFreq ; 0x1848
        0x00002ff2:    4604        .F      MOV      r4,r0
        0x00002ff4:    e00a        ..      B        0x300c ; GetUartClk + 52
        0x00002ff6:    4808        .H      LDR      r0,[pc,#32] ; [0x3018] = 0x50000200
        0x00002ff8:    6940        @i      LDR      r0,[r0,#0x14]
        0x00002ffa:    0180        ..      LSLS     r0,r0,#6
        0x00002ffc:    0f80        ..      LSRS     r0,r0,#30
        0x00002ffe:    2801        .(      CMP      r0,#1
        0x00003000:    d103        ..      BNE      0x300a ; GetUartClk + 50
        0x00003002:    f7fefc5b    ..[.    BL       DrvSYS_GetPLLClockFreq ; 0x18bc
        0x00003006:    4604        .F      MOV      r4,r0
        0x00003008:    e000        ..      B        0x300c ; GetUartClk + 52
        0x0000300a:    4c04        .L      LDR      r4,[pc,#16] ; [0x301c] = 0x1518000
        0x0000300c:    1c69        i.      ADDS     r1,r5,#1
        0x0000300e:    4620         F      MOV      r0,r4
        0x00003010:    f7fdf8dc    ....    BL       __aeabi_uidiv ; 0x1cc
        0x00003014:    bd70        p.      POP      {r4-r6,pc}
    $d
        0x00003016:    0000        ..      DCW    0
        0x00003018:    50000200    ...P    DCD    1342177792
        0x0000301c:    01518000    ..Q.    DCD    22118400
    $t
    i.HID_CtrlGetDescriptorIn
    HID_CtrlGetDescriptorIn
        0x00003020:    b570        p.      PUSH     {r4-r6,lr}
        0x00003022:    4605        .F      MOV      r5,r0
        0x00003024:    481e        .H      LDR      r0,[pc,#120] ; [0x30a0] = 0x2000031c
        0x00003026:    6800        .h      LDR      r0,[r0,#0]
        0x00003028:    2800        .(      CMP      r0,#0
        0x0000302a:    d034        4.      BEQ      0x3096 ; HID_CtrlGetDescriptorIn + 118
        0x0000302c:    481d        .H      LDR      r0,[pc,#116] ; [0x30a4] = 0x20000320
        0x0000302e:    6800        .h      LDR      r0,[r0,#0]
        0x00003030:    2800        .(      CMP      r0,#0
        0x00003032:    d109        ..      BNE      0x3048 ; HID_CtrlGetDescriptorIn + 40
        0x00003034:    2200        ."      MOVS     r2,#0
        0x00003036:    481a        .H      LDR      r0,[pc,#104] ; [0x30a0] = 0x2000031c
        0x00003038:    6801        .h      LDR      r1,[r0,#0]
        0x0000303a:    4610        .F      MOV      r0,r2
        0x0000303c:    f7fffcdc    ....    BL       DrvUSB_DataIn ; 0x29f8
        0x00003040:    2000        .       MOVS     r0,#0
        0x00003042:    4917        .I      LDR      r1,[pc,#92] ; [0x30a0] = 0x2000031c
        0x00003044:    6008        .`      STR      r0,[r1,#0]
        0x00003046:    e029        ).      B        0x309c ; HID_CtrlGetDescriptorIn + 124
        0x00003048:    4916        .I      LDR      r1,[pc,#88] ; [0x30a4] = 0x20000320
        0x0000304a:    8809        ..      LDRH     r1,[r1,#0]
        0x0000304c:    b288        ..      UXTH     r0,r1
        0x0000304e:    2108        .!      MOVS     r1,#8
        0x00003050:    f000f9ee    ....    BL       Minimum ; 0x3430
        0x00003054:    4604        .F      MOV      r4,r0
        0x00003056:    4622        "F      MOV      r2,r4
        0x00003058:    4811        .H      LDR      r0,[pc,#68] ; [0x30a0] = 0x2000031c
        0x0000305a:    6801        .h      LDR      r1,[r0,#0]
        0x0000305c:    2000        .       MOVS     r0,#0
        0x0000305e:    f7fffccb    ....    BL       DrvUSB_DataIn ; 0x29f8
        0x00003062:    480f        .H      LDR      r0,[pc,#60] ; [0x30a0] = 0x2000031c
        0x00003064:    6800        .h      LDR      r0,[r0,#0]
        0x00003066:    1900        ..      ADDS     r0,r0,r4
        0x00003068:    490d        .I      LDR      r1,[pc,#52] ; [0x30a0] = 0x2000031c
        0x0000306a:    6008        .`      STR      r0,[r1,#0]
        0x0000306c:    480d        .H      LDR      r0,[pc,#52] ; [0x30a4] = 0x20000320
        0x0000306e:    6800        .h      LDR      r0,[r0,#0]
        0x00003070:    1b00        ..      SUBS     r0,r0,r4
        0x00003072:    490c        .I      LDR      r1,[pc,#48] ; [0x30a4] = 0x20000320
        0x00003074:    6008        .`      STR      r0,[r1,#0]
        0x00003076:    4608        .F      MOV      r0,r1
        0x00003078:    6800        .h      LDR      r0,[r0,#0]
        0x0000307a:    2800        .(      CMP      r0,#0
        0x0000307c:    d10e        ..      BNE      0x309c ; HID_CtrlGetDescriptorIn + 124
        0x0000307e:    2c08        .,      CMP      r4,#8
        0x00003080:    d202        ..      BCS      0x3088 ; HID_CtrlGetDescriptorIn + 104
        0x00003082:    4907        .I      LDR      r1,[pc,#28] ; [0x30a0] = 0x2000031c
        0x00003084:    6008        .`      STR      r0,[r1,#0]
        0x00003086:    e009        ..      B        0x309c ; HID_CtrlGetDescriptorIn + 124
        0x00003088:    4807        .H      LDR      r0,[pc,#28] ; [0x30a8] = 0x20000324
        0x0000308a:    7800        .x      LDRB     r0,[r0,#0]
        0x0000308c:    2800        .(      CMP      r0,#0
        0x0000308e:    d105        ..      BNE      0x309c ; HID_CtrlGetDescriptorIn + 124
        0x00003090:    4903        .I      LDR      r1,[pc,#12] ; [0x30a0] = 0x2000031c
        0x00003092:    6008        .`      STR      r0,[r1,#0]
        0x00003094:    e002        ..      B        0x309c ; HID_CtrlGetDescriptorIn + 124
        0x00003096:    2000        .       MOVS     r0,#0
        0x00003098:    4904        .I      LDR      r1,[pc,#16] ; [0x30ac] = 0x40060000
        0x0000309a:    6348        Hc      STR      r0,[r1,#0x34]
        0x0000309c:    bd70        p.      POP      {r4-r6,pc}
    $d
        0x0000309e:    0000        ..      DCW    0
        0x000030a0:    2000031c    ...     DCD    536871708
        0x000030a4:    20000320     ..     DCD    536871712
        0x000030a8:    20000324    $..     DCD    536871716
        0x000030ac:    40060000    ...@    DCD    1074135040
    $t
    i.HID_CtrlSetupGetDescriptor
    HID_CtrlSetupGetDescriptor
        0x000030b0:    b5f8        ..      PUSH     {r3-r7,lr}
        0x000030b2:    4605        .F      MOV      r5,r0
        0x000030b4:    462f        /F      MOV      r7,r5
        0x000030b6:    6b3c        <k      LDR      r4,[r7,#0x30]
        0x000030b8:    2600        .&      MOVS     r6,#0
        0x000030ba:    2093        .       MOVS     r0,#0x93
        0x000030bc:    5d06        .]      LDRB     r6,[r0,r4]
        0x000030be:    0236        6.      LSLS     r6,r6,#8
        0x000030c0:    2092        .       MOVS     r0,#0x92
        0x000030c2:    5d00        .]      LDRB     r0,[r0,r4]
        0x000030c4:    1980        ..      ADDS     r0,r0,r6
        0x000030c6:    b286        ..      UXTH     r6,r0
        0x000030c8:    2000        .       MOVS     r0,#0
        0x000030ca:    4939        9I      LDR      r1,[pc,#228] ; [0x31b0] = 0x20000324
        0x000030cc:    7008        .p      STRB     r0,[r1,#0]
        0x000030ce:    4939        9I      LDR      r1,[pc,#228] ; [0x31b4] = 0x20000320
        0x000030d0:    6008        .`      STR      r0,[r1,#0]
        0x000030d2:    4939        9I      LDR      r1,[pc,#228] ; [0x31b8] = 0x2000031c
        0x000030d4:    6008        .`      STR      r0,[r1,#0]
        0x000030d6:    208f        .       MOVS     r0,#0x8f
        0x000030d8:    5d00        .]      LDRB     r0,[r0,r4]
        0x000030da:    2803        .(      CMP      r0,#3
        0x000030dc:    d02e        ..      BEQ      0x313c ; HID_CtrlSetupGetDescriptor + 140
        0x000030de:    dc04        ..      BGT      0x30ea ; HID_CtrlSetupGetDescriptor + 58
        0x000030e0:    2801        .(      CMP      r0,#1
        0x000030e2:    d007        ..      BEQ      0x30f4 ; HID_CtrlSetupGetDescriptor + 68
        0x000030e4:    2802        .(      CMP      r0,#2
        0x000030e6:    d15d        ].      BNE      0x31a4 ; HID_CtrlSetupGetDescriptor + 244
        0x000030e8:    e00f        ..      B        0x310a ; HID_CtrlSetupGetDescriptor + 90
        0x000030ea:    2821        !(      CMP      r0,#0x21
        0x000030ec:    d016        ..      BEQ      0x311c ; HID_CtrlSetupGetDescriptor + 108
        0x000030ee:    2822        "(      CMP      r0,#0x22
        0x000030f0:    d158        X.      BNE      0x31a4 ; HID_CtrlSetupGetDescriptor + 244
        0x000030f2:    e01b        ..      B        0x312c ; HID_CtrlSetupGetDescriptor + 124
        0x000030f4:    4931        1I      LDR      r1,[pc,#196] ; [0x31bc] = 0x200004e4
        0x000030f6:    2308        .#      MOVS     r3,#8
        0x000030f8:    4632        2F      MOV      r2,r6
        0x000030fa:    68c8        .h      LDR      r0,[r1,#0xc]
        0x000030fc:    2112        .!      MOVS     r1,#0x12
        0x000030fe:    f000f8df    ....    BL       HID_PrepareDescriptors ; 0x32c0
        0x00003102:    2000        .       MOVS     r0,#0
        0x00003104:    492e        .I      LDR      r1,[pc,#184] ; [0x31c0] = 0x40060000
        0x00003106:    6348        Hc      STR      r0,[r1,#0x34]
        0x00003108:    e04f        O.      B        0x31aa ; HID_CtrlSetupGetDescriptor + 250
        0x0000310a:    4a2e        .J      LDR      r2,[pc,#184] ; [0x31c4] = 0x404e
        0x0000310c:    7891        .x      LDRB     r1,[r2,#2]
        0x0000310e:    4a2b        +J      LDR      r2,[pc,#172] ; [0x31bc] = 0x200004e4
        0x00003110:    2308        .#      MOVS     r3,#8
        0x00003112:    6910        .i      LDR      r0,[r2,#0x10]
        0x00003114:    4632        2F      MOV      r2,r6
        0x00003116:    f000f8d3    ....    BL       HID_PrepareDescriptors ; 0x32c0
        0x0000311a:    e046        F.      B        0x31aa ; HID_CtrlSetupGetDescriptor + 250
        0x0000311c:    4927        'I      LDR      r1,[pc,#156] ; [0x31bc] = 0x200004e4
        0x0000311e:    2308        .#      MOVS     r3,#8
        0x00003120:    4632        2F      MOV      r2,r6
        0x00003122:    6a08        .j      LDR      r0,[r1,#0x20]
        0x00003124:    2109        .!      MOVS     r1,#9
        0x00003126:    f000f8cb    ....    BL       HID_PrepareDescriptors ; 0x32c0
        0x0000312a:    e03e        >.      B        0x31aa ; HID_CtrlSetupGetDescriptor + 250
        0x0000312c:    4a23        #J      LDR      r2,[pc,#140] ; [0x31bc] = 0x200004e4
        0x0000312e:    69d1        .i      LDR      r1,[r2,#0x1c]
        0x00003130:    2308        .#      MOVS     r3,#8
        0x00003132:    6990        .i      LDR      r0,[r2,#0x18]
        0x00003134:    4632        2F      MOV      r2,r6
        0x00003136:    f000f8c3    ....    BL       HID_PrepareDescriptors ; 0x32c0
        0x0000313a:    e036        6.      B        0x31aa ; HID_CtrlSetupGetDescriptor + 250
        0x0000313c:    208e        .       MOVS     r0,#0x8e
        0x0000313e:    5d00        .]      LDRB     r0,[r0,r4]
        0x00003140:    2800        .(      CMP      r0,#0
        0x00003142:    d106        ..      BNE      0x3152 ; HID_CtrlSetupGetDescriptor + 162
        0x00003144:    2308        .#      MOVS     r3,#8
        0x00003146:    4632        2F      MOV      r2,r6
        0x00003148:    2104        .!      MOVS     r1,#4
        0x0000314a:    481f        .H      LDR      r0,[pc,#124] ; [0x31c8] = 0x4070
        0x0000314c:    f000f8b8    ....    BL       HID_PrepareDescriptors ; 0x32c0
        0x00003150:    e027        '.      B        0x31a2 ; HID_CtrlSetupGetDescriptor + 242
        0x00003152:    208e        .       MOVS     r0,#0x8e
        0x00003154:    5d00        .]      LDRB     r0,[r0,r4]
        0x00003156:    2801        .(      CMP      r0,#1
        0x00003158:    d004        ..      BEQ      0x3164 ; HID_CtrlSetupGetDescriptor + 180
        0x0000315a:    2802        .(      CMP      r0,#2
        0x0000315c:    d00c        ..      BEQ      0x3178 ; HID_CtrlSetupGetDescriptor + 200
        0x0000315e:    2803        .(      CMP      r0,#3
        0x00003160:    d11b        ..      BNE      0x319a ; HID_CtrlSetupGetDescriptor + 234
        0x00003162:    e013        ..      B        0x318c ; HID_CtrlSetupGetDescriptor + 220
        0x00003164:    4a15        .J      LDR      r2,[pc,#84] ; [0x31bc] = 0x200004e4
        0x00003166:    6852        Rh      LDR      r2,[r2,#4]
        0x00003168:    7811        .x      LDRB     r1,[r2,#0]
        0x0000316a:    4a14        .J      LDR      r2,[pc,#80] ; [0x31bc] = 0x200004e4
        0x0000316c:    2308        .#      MOVS     r3,#8
        0x0000316e:    6850        Ph      LDR      r0,[r2,#4]
        0x00003170:    4632        2F      MOV      r2,r6
        0x00003172:    f000f8a5    ....    BL       HID_PrepareDescriptors ; 0x32c0
        0x00003176:    e013        ..      B        0x31a0 ; HID_CtrlSetupGetDescriptor + 240
        0x00003178:    4a10        .J      LDR      r2,[pc,#64] ; [0x31bc] = 0x200004e4
        0x0000317a:    6892        .h      LDR      r2,[r2,#8]
        0x0000317c:    7811        .x      LDRB     r1,[r2,#0]
        0x0000317e:    4a0f        .J      LDR      r2,[pc,#60] ; [0x31bc] = 0x200004e4
        0x00003180:    2308        .#      MOVS     r3,#8
        0x00003182:    6890        .h      LDR      r0,[r2,#8]
        0x00003184:    4632        2F      MOV      r2,r6
        0x00003186:    f000f89b    ....    BL       HID_PrepareDescriptors ; 0x32c0
        0x0000318a:    e009        ..      B        0x31a0 ; HID_CtrlSetupGetDescriptor + 240
        0x0000318c:    480f        .H      LDR      r0,[pc,#60] ; [0x31cc] = 0x4208
        0x0000318e:    7801        .x      LDRB     r1,[r0,#0]
        0x00003190:    2308        .#      MOVS     r3,#8
        0x00003192:    4632        2F      MOV      r2,r6
        0x00003194:    f000f894    ....    BL       HID_PrepareDescriptors ; 0x32c0
        0x00003198:    e002        ..      B        0x31a0 ; HID_CtrlSetupGetDescriptor + 240
        0x0000319a:    f7fffa2f    ../.    BL       DrvUSB_ClrCtrlReadyAndTrigStall ; 0x25fc
        0x0000319e:    bf00        ..      NOP      
        0x000031a0:    bf00        ..      NOP      
        0x000031a2:    e002        ..      B        0x31aa ; HID_CtrlSetupGetDescriptor + 250
        0x000031a4:    f7fffa2a    ..*.    BL       DrvUSB_ClrCtrlReadyAndTrigStall ; 0x25fc
        0x000031a8:    bf00        ..      NOP      
        0x000031aa:    bf00        ..      NOP      
        0x000031ac:    bdf8        ..      POP      {r3-r7,pc}
    $d
        0x000031ae:    0000        ..      DCW    0
        0x000031b0:    20000324    $..     DCD    536871716
        0x000031b4:    20000320     ..     DCD    536871712
        0x000031b8:    2000031c    ...     DCD    536871708
        0x000031bc:    200004e4    ...     DCD    536872164
        0x000031c0:    40060000    ...@    DCD    1074135040
        0x000031c4:    0000404e    N@..    DCD    16462
        0x000031c8:    00004070    p@..    DCD    16496
        0x000031cc:    00004208    .B..    DCD    16904
    $t
    i.HID_CtrlSetupGetProtocol
    HID_CtrlSetupGetProtocol
        0x000031d0:    b570        p.      PUSH     {r4-r6,lr}
        0x000031d2:    4604        .F      MOV      r4,r0
        0x000031d4:    4625        %F      MOV      r5,r4
        0x000031d6:    2201        ."      MOVS     r2,#1
        0x000031d8:    4629        )F      MOV      r1,r5
        0x000031da:    312d        -1      ADDS     r1,r1,#0x2d
        0x000031dc:    2000        .       MOVS     r0,#0
        0x000031de:    f7fffc0b    ....    BL       DrvUSB_DataIn ; 0x29f8
        0x000031e2:    bd70        p.      POP      {r4-r6,pc}
    i.HID_CtrlSetupSetIdle
    HID_CtrlSetupSetIdle
        0x000031e4:    4904        .I      LDR      r1,[pc,#16] ; [0x31f8] = 0x40060000
        0x000031e6:    6a89        .j      LDR      r1,[r1,#0x28]
        0x000031e8:    2280        ."      MOVS     r2,#0x80
        0x000031ea:    4311        .C      ORRS     r1,r1,r2
        0x000031ec:    4a02        .J      LDR      r2,[pc,#8] ; [0x31f8] = 0x40060000
        0x000031ee:    6291        .b      STR      r1,[r2,#0x28]
        0x000031f0:    2100        .!      MOVS     r1,#0
        0x000031f2:    6251        Qb      STR      r1,[r2,#0x24]
        0x000031f4:    4770        pG      BX       lr
    $d
        0x000031f6:    0000        ..      DCW    0
        0x000031f8:    40060000    ...@    DCD    1074135040
    $t
    i.HID_CtrlSetupSetProtocol
    HID_CtrlSetupSetProtocol
        0x000031fc:    b510        ..      PUSH     {r4,lr}
        0x000031fe:    4601        .F      MOV      r1,r0
        0x00003200:    6b0a        .k      LDR      r2,[r1,#0x30]
        0x00003202:    238e        .#      MOVS     r3,#0x8e
        0x00003204:    5c9b        .\      LDRB     r3,[r3,r2]
        0x00003206:    b25c        \.      SXTB     r4,r3
        0x00003208:    232d        -#      MOVS     r3,#0x2d
        0x0000320a:    545c        \T      STRB     r4,[r3,r1]
        0x0000320c:    4b04        .K      LDR      r3,[pc,#16] ; [0x3220] = 0x40060000
        0x0000320e:    6a9b        .j      LDR      r3,[r3,#0x28]
        0x00003210:    2480        .$      MOVS     r4,#0x80
        0x00003212:    4323        #C      ORRS     r3,r3,r4
        0x00003214:    4c02        .L      LDR      r4,[pc,#8] ; [0x3220] = 0x40060000
        0x00003216:    62a3        .b      STR      r3,[r4,#0x28]
        0x00003218:    2300        .#      MOVS     r3,#0
        0x0000321a:    6263        cb      STR      r3,[r4,#0x24]
        0x0000321c:    bd10        ..      POP      {r4,pc}
    $d
        0x0000321e:    0000        ..      DCW    0
        0x00003220:    40060000    ...@    DCD    1074135040
    $t
    i.HID_CtrlSetupSetReport
    HID_CtrlSetupSetReport
        0x00003224:    4601        .F      MOV      r1,r0
        0x00003226:    6b08        .k      LDR      r0,[r1,#0x30]
        0x00003228:    228f        ."      MOVS     r2,#0x8f
        0x0000322a:    5c12        .\      LDRB     r2,[r2,r0]
        0x0000322c:    2a01        .*      CMP      r2,#1
        0x0000322e:    d108        ..      BNE      0x3242 ; HID_CtrlSetupSetReport + 30
        0x00003230:    4a19        .J      LDR      r2,[pc,#100] ; [0x3298] = 0x40060000
        0x00003232:    6b92        .k      LDR      r2,[r2,#0x38]
        0x00003234:    2380        .#      MOVS     r3,#0x80
        0x00003236:    431a        .C      ORRS     r2,r2,r3
        0x00003238:    4b17        .K      LDR      r3,[pc,#92] ; [0x3298] = 0x40060000
        0x0000323a:    639a        .c      STR      r2,[r3,#0x38]
        0x0000323c:    2200        ."      MOVS     r2,#0
        0x0000323e:    635a        Zc      STR      r2,[r3,#0x34]
        0x00003240:    e028        (.      B        0x3294 ; HID_CtrlSetupSetReport + 112
        0x00003242:    228f        ."      MOVS     r2,#0x8f
        0x00003244:    5c12        .\      LDRB     r2,[r2,r0]
        0x00003246:    2a02        .*      CMP      r2,#2
        0x00003248:    d108        ..      BNE      0x325c ; HID_CtrlSetupSetReport + 56
        0x0000324a:    4a13        .J      LDR      r2,[pc,#76] ; [0x3298] = 0x40060000
        0x0000324c:    6b92        .k      LDR      r2,[r2,#0x38]
        0x0000324e:    2380        .#      MOVS     r3,#0x80
        0x00003250:    431a        .C      ORRS     r2,r2,r3
        0x00003252:    4b11        .K      LDR      r3,[pc,#68] ; [0x3298] = 0x40060000
        0x00003254:    639a        .c      STR      r2,[r3,#0x38]
        0x00003256:    2200        ."      MOVS     r2,#0
        0x00003258:    635a        Zc      STR      r2,[r3,#0x34]
        0x0000325a:    e01b        ..      B        0x3294 ; HID_CtrlSetupSetReport + 112
        0x0000325c:    228f        ."      MOVS     r2,#0x8f
        0x0000325e:    5c12        .\      LDRB     r2,[r2,r0]
        0x00003260:    2a03        .*      CMP      r2,#3
        0x00003262:    d108        ..      BNE      0x3276 ; HID_CtrlSetupSetReport + 82
        0x00003264:    4a0c        .J      LDR      r2,[pc,#48] ; [0x3298] = 0x40060000
        0x00003266:    6b92        .k      LDR      r2,[r2,#0x38]
        0x00003268:    2380        .#      MOVS     r3,#0x80
        0x0000326a:    431a        .C      ORRS     r2,r2,r3
        0x0000326c:    4b0a        .K      LDR      r3,[pc,#40] ; [0x3298] = 0x40060000
        0x0000326e:    639a        .c      STR      r2,[r3,#0x38]
        0x00003270:    2200        ."      MOVS     r2,#0
        0x00003272:    635a        Zc      STR      r2,[r3,#0x34]
        0x00003274:    e00e        ..      B        0x3294 ; HID_CtrlSetupSetReport + 112
        0x00003276:    bf00        ..      NOP      
        0x00003278:    4a07        .J      LDR      r2,[pc,#28] ; [0x3298] = 0x40060000
        0x0000327a:    6ad2        .j      LDR      r2,[r2,#0x2c]
        0x0000327c:    2303        .#      MOVS     r3,#3
        0x0000327e:    431a        .C      ORRS     r2,r2,r3
        0x00003280:    4b05        .K      LDR      r3,[pc,#20] ; [0x3298] = 0x40060000
        0x00003282:    62da        .b      STR      r2,[r3,#0x2c]
        0x00003284:    461a        .F      MOV      r2,r3
        0x00003286:    6bd2        .k      LDR      r2,[r2,#0x3c]
        0x00003288:    2303        .#      MOVS     r3,#3
        0x0000328a:    431a        .C      ORRS     r2,r2,r3
        0x0000328c:    4b02        .K      LDR      r3,[pc,#8] ; [0x3298] = 0x40060000
        0x0000328e:    63da        .c      STR      r2,[r3,#0x3c]
        0x00003290:    bf00        ..      NOP      
        0x00003292:    bf00        ..      NOP      
        0x00003294:    4770        pG      BX       lr
    $d
        0x00003296:    0000        ..      DCW    0
        0x00003298:    40060000    ...@    DCD    1074135040
    $t
    i.HID_IntInCallback
    HID_IntInCallback
        0x0000329c:    4601        .F      MOV      r1,r0
        0x0000329e:    2300        .#      MOVS     r3,#0
        0x000032a0:    222c        ,"      MOVS     r2,#0x2c
        0x000032a2:    5453        ST      STRB     r3,[r2,r1]
        0x000032a4:    4770        pG      BX       lr
        0x000032a6:    0000        ..      MOVS     r0,r0
    i.HID_IsConfigureValue
    HID_IsConfigureValue
        0x000032a8:    4601        .F      MOV      r1,r0
        0x000032aa:    4804        .H      LDR      r0,[pc,#16] ; [0x32bc] = 0x404e
        0x000032ac:    7940        @y      LDRB     r0,[r0,#5]
        0x000032ae:    4288        .B      CMP      r0,r1
        0x000032b0:    d101        ..      BNE      0x32b6 ; HID_IsConfigureValue + 14
        0x000032b2:    2001        .       MOVS     r0,#1
        0x000032b4:    4770        pG      BX       lr
        0x000032b6:    2000        .       MOVS     r0,#0
        0x000032b8:    e7fc        ..      B        0x32b4 ; HID_IsConfigureValue + 12
    $d
        0x000032ba:    0000        ..      DCW    0
        0x000032bc:    0000404e    N@..    DCD    16462
    $t
    i.HID_PrepareDescriptors
    HID_PrepareDescriptors
        0x000032c0:    b5f8        ..      PUSH     {r3-r7,lr}
        0x000032c2:    4607        .F      MOV      r7,r0
        0x000032c4:    460d        .F      MOV      r5,r1
        0x000032c6:    4616        .F      MOV      r6,r2
        0x000032c8:    461c        .F      MOV      r4,r3
        0x000032ca:    4816        .H      LDR      r0,[pc,#88] ; [0x3324] = 0x20000320
        0x000032cc:    6006        .`      STR      r6,[r0,#0]
        0x000032ce:    42ae        .B      CMP      r6,r5
        0x000032d0:    d903        ..      BLS      0x32da ; HID_PrepareDescriptors + 26
        0x000032d2:    6005        .`      STR      r5,[r0,#0]
        0x000032d4:    2001        .       MOVS     r0,#1
        0x000032d6:    4914        .I      LDR      r1,[pc,#80] ; [0x3328] = 0x20000324
        0x000032d8:    7008        .p      STRB     r0,[r1,#0]
        0x000032da:    4814        .H      LDR      r0,[pc,#80] ; [0x332c] = 0x2000031c
        0x000032dc:    6007        .`      STR      r7,[r0,#0]
        0x000032de:    4811        .H      LDR      r0,[pc,#68] ; [0x3324] = 0x20000320
        0x000032e0:    6800        .h      LDR      r0,[r0,#0]
        0x000032e2:    42a0        .B      CMP      r0,r4
        0x000032e4:    d20c        ..      BCS      0x3300 ; HID_PrepareDescriptors + 64
        0x000032e6:    480f        .H      LDR      r0,[pc,#60] ; [0x3324] = 0x20000320
        0x000032e8:    6802        .h      LDR      r2,[r0,#0]
        0x000032ea:    4810        .H      LDR      r0,[pc,#64] ; [0x332c] = 0x2000031c
        0x000032ec:    6801        .h      LDR      r1,[r0,#0]
        0x000032ee:    2000        .       MOVS     r0,#0
        0x000032f0:    f7fffb82    ....    BL       DrvUSB_DataIn ; 0x29f8
        0x000032f4:    2000        .       MOVS     r0,#0
        0x000032f6:    490d        .I      LDR      r1,[pc,#52] ; [0x332c] = 0x2000031c
        0x000032f8:    6008        .`      STR      r0,[r1,#0]
        0x000032fa:    490a        .I      LDR      r1,[pc,#40] ; [0x3324] = 0x20000320
        0x000032fc:    6008        .`      STR      r0,[r1,#0]
        0x000032fe:    e00f        ..      B        0x3320 ; HID_PrepareDescriptors + 96
        0x00003300:    4622        "F      MOV      r2,r4
        0x00003302:    480a        .H      LDR      r0,[pc,#40] ; [0x332c] = 0x2000031c
        0x00003304:    6801        .h      LDR      r1,[r0,#0]
        0x00003306:    2000        .       MOVS     r0,#0
        0x00003308:    f7fffb76    ..v.    BL       DrvUSB_DataIn ; 0x29f8
        0x0000330c:    4807        .H      LDR      r0,[pc,#28] ; [0x332c] = 0x2000031c
        0x0000330e:    6800        .h      LDR      r0,[r0,#0]
        0x00003310:    1900        ..      ADDS     r0,r0,r4
        0x00003312:    4906        .I      LDR      r1,[pc,#24] ; [0x332c] = 0x2000031c
        0x00003314:    6008        .`      STR      r0,[r1,#0]
        0x00003316:    4803        .H      LDR      r0,[pc,#12] ; [0x3324] = 0x20000320
        0x00003318:    6800        .h      LDR      r0,[r0,#0]
        0x0000331a:    1b00        ..      SUBS     r0,r0,r4
        0x0000331c:    4901        .I      LDR      r1,[pc,#4] ; [0x3324] = 0x20000320
        0x0000331e:    6008        .`      STR      r0,[r1,#0]
        0x00003320:    bdf8        ..      POP      {r3-r7,pc}
    $d
        0x00003322:    0000        ..      DCW    0
        0x00003324:    20000320     ..     DCD    536871712
        0x00003328:    20000324    $..     DCD    536871716
        0x0000332c:    2000031c    ...     DCD    536871708
    $t
    i.HID_Reset
    HID_Reset
        0x00003330:    b510        ..      PUSH     {r4,lr}
        0x00003332:    4604        .F      MOV      r4,r0
        0x00003334:    2001        .       MOVS     r0,#1
        0x00003336:    f7fffd7f    ....    BL       DrvUSB_Reset ; 0x2e38
        0x0000333a:    bd10        ..      POP      {r4,pc}
    i.HID_Start
    HID_Start
        0x0000333c:    b510        ..      PUSH     {r4,lr}
        0x0000333e:    4604        .F      MOV      r4,r0
        0x00003340:    4805        .H      LDR      r0,[pc,#20] ; [0x3358] = 0
        0x00003342:    2800        .(      CMP      r0,#0
        0x00003344:    d001        ..      BEQ      0x334a ; HID_Start + 14
        0x00003346:    46c0        .F      MOV      r8,r8
        0x00003348:    46c0        .F      MOV      r8,r8
        0x0000334a:    4804        .H      LDR      r0,[pc,#16] ; [0x335c] = 0
        0x0000334c:    2800        .(      CMP      r0,#0
        0x0000334e:    d001        ..      BEQ      0x3354 ; HID_Start + 24
        0x00003350:    46c0        .F      MOV      r8,r8
        0x00003352:    46c0        .F      MOV      r8,r8
        0x00003354:    bd10        ..      POP      {r4,pc}
    $d
        0x00003356:    0000        ..      DCW    0
        0x00003358:    00000000    ....    DCD    0
        0x0000335c:    00000000    ....    DCD    0
    $t
    i.HID_UsbStartCallBack
    HID_UsbStartCallBack
        0x00003360:    b510        ..      PUSH     {r4,lr}
        0x00003362:    4604        .F      MOV      r4,r0
        0x00003364:    4620         F      MOV      r0,r4
        0x00003366:    f7ffffe3    ....    BL       HID_Reset ; 0x3330
        0x0000336a:    4620         F      MOV      r0,r4
        0x0000336c:    f7ffffe6    ....    BL       HID_Start ; 0x333c
        0x00003370:    bd10        ..      POP      {r4,pc}
        0x00003372:    0000        ..      MOVS     r0,r0
    i.InitSystem
    InitSystem
        0x00003374:    b510        ..      PUSH     {r4,lr}
        0x00003376:    2059        Y       MOVS     r0,#0x59
        0x00003378:    4927        'I      LDR      r1,[pc,#156] ; [0x3418] = 0x50000100
        0x0000337a:    6008        .`      STR      r0,[r1,#0]
        0x0000337c:    2016        .       MOVS     r0,#0x16
        0x0000337e:    6008        .`      STR      r0,[r1,#0]
        0x00003380:    2088        .       MOVS     r0,#0x88
        0x00003382:    6008        .`      STR      r0,[r1,#0]
        0x00003384:    4825        %H      LDR      r0,[pc,#148] ; [0x341c] = 0x50000200
        0x00003386:    6800        .h      LDR      r0,[r0,#0]
        0x00003388:    0840        @.      LSRS     r0,r0,#1
        0x0000338a:    0040        @.      LSLS     r0,r0,#1
        0x0000338c:    1c40        @.      ADDS     r0,r0,#1
        0x0000338e:    4923        #I      LDR      r1,[pc,#140] ; [0x341c] = 0x50000200
        0x00003390:    6008        .`      STR      r0,[r1,#0]
        0x00003392:    4823        #H      LDR      r0,[pc,#140] ; [0x3420] = 0x1388
        0x00003394:    f7fefa42    ..B.    BL       DrvSYS_Delay ; 0x181c
        0x00003398:    2000        .       MOVS     r0,#0
        0x0000339a:    f7fefc53    ..S.    BL       DrvSYS_SelectPLLSource ; 0x1c44
        0x0000339e:    4821        !H      LDR      r0,[pc,#132] ; [0x3424] = 0x2faf080
        0x000033a0:    f7fefb2e    ....    BL       DrvSYS_Open ; 0x1a00
        0x000033a4:    2000        .       MOVS     r0,#0
        0x000033a6:    491c        .I      LDR      r1,[pc,#112] ; [0x3418] = 0x50000100
        0x000033a8:    6008        .`      STR      r0,[r1,#0]
        0x000033aa:    2400        .$      MOVS     r4,#0
        0x000033ac:    e009        ..      B        0x33c2 ; InitSystem + 78
        0x000033ae:    00e2        ..      LSLS     r2,r4,#3
        0x000033b0:    4b1d        .K      LDR      r3,[pc,#116] ; [0x3428] = 0x20000020
        0x000033b2:    18d2        ..      ADDS     r2,r2,r3
        0x000033b4:    6851        Qh      LDR      r1,[r2,#4]
        0x000033b6:    00e2        ..      LSLS     r2,r4,#3
        0x000033b8:    5c98        .\      LDRB     r0,[r3,r2]
        0x000033ba:    2201        ."      MOVS     r2,#1
        0x000033bc:    f7fdfc36    ..6.    BL       DrvGPIO_Open ; 0xc2c
        0x000033c0:    1c64        d.      ADDS     r4,r4,#1
        0x000033c2:    2c0e        .,      CMP      r4,#0xe
        0x000033c4:    d3f3        ..      BCC      0x33ae ; InitSystem + 58
        0x000033c6:    e009        ..      B        0x33dc ; InitSystem + 104
        0x000033c8:    00e2        ..      LSLS     r2,r4,#3
        0x000033ca:    4b17        .K      LDR      r3,[pc,#92] ; [0x3428] = 0x20000020
        0x000033cc:    18d2        ..      ADDS     r2,r2,r3
        0x000033ce:    6851        Qh      LDR      r1,[r2,#4]
        0x000033d0:    00e2        ..      LSLS     r2,r4,#3
        0x000033d2:    5c98        .\      LDRB     r0,[r3,r2]
        0x000033d4:    2201        ."      MOVS     r2,#1
        0x000033d6:    f7fdfc29    ..).    BL       DrvGPIO_Open ; 0xc2c
        0x000033da:    1c64        d.      ADDS     r4,r4,#1
        0x000033dc:    2c12        .,      CMP      r4,#0x12
        0x000033de:    d3f3        ..      BCC      0x33c8 ; InitSystem + 84
        0x000033e0:    2000        .       MOVS     r0,#0
        0x000033e2:    4912        .I      LDR      r1,[pc,#72] ; [0x342c] = 0x500042c0
        0x000033e4:    6008        .`      STR      r0,[r1,#0]
        0x000033e6:    6048        H`      STR      r0,[r1,#4]
        0x000033e8:    6088        .`      STR      r0,[r1,#8]
        0x000033ea:    60c8        .`      STR      r0,[r1,#0xc]
        0x000033ec:    490f        .I      LDR      r1,[pc,#60] ; [0x342c] = 0x500042c0
        0x000033ee:    3980        .9      SUBS     r1,r1,#0x80
        0x000033f0:    6208        .b      STR      r0,[r1,#0x20]
        0x000033f2:    490e        .I      LDR      r1,[pc,#56] ; [0x342c] = 0x500042c0
        0x000033f4:    3940        @9      SUBS     r1,r1,#0x40
        0x000033f6:    6008        .`      STR      r0,[r1,#0]
        0x000033f8:    6048        H`      STR      r0,[r1,#4]
        0x000033fa:    6088        .`      STR      r0,[r1,#8]
        0x000033fc:    2001        .       MOVS     r0,#1
        0x000033fe:    6208        .b      STR      r0,[r1,#0x20]
        0x00003400:    2000        .       MOVS     r0,#0
        0x00003402:    6308        .c      STR      r0,[r1,#0x30]
        0x00003404:    f000fc84    ....    BL       UART_Configuration ; 0x3d10
        0x00003408:    f000fa8e    ....    BL       TIMER_Configuration ; 0x3928
        0x0000340c:    2119        .!      MOVS     r1,#0x19
        0x0000340e:    207d        }       MOVS     r0,#0x7d
        0x00003410:    00c0        ..      LSLS     r0,r0,#3
        0x00003412:    f000fa03    ....    BL       PWM_Configuration ; 0x381c
        0x00003416:    bd10        ..      POP      {r4,pc}
    $d
        0x00003418:    50000100    ...P    DCD    1342177536
        0x0000341c:    50000200    ...P    DCD    1342177792
        0x00003420:    00001388    ....    DCD    5000
        0x00003424:    02faf080    ....    DCD    50000000
        0x00003428:    20000020     ..     DCD    536870944
        0x0000342c:    500042c0    .B.P    DCD    1342194368
    $t
    i.Minimum
    Minimum
        0x00003430:    4602        .F      MOV      r2,r0
        0x00003432:    428a        .B      CMP      r2,r1
        0x00003434:    dd01        ..      BLE      0x343a ; Minimum + 10
        0x00003436:    4608        .F      MOV      r0,r1
        0x00003438:    4770        pG      BX       lr
        0x0000343a:    4610        .F      MOV      r0,r2
        0x0000343c:    e7fc        ..      B        0x3438 ; Minimum + 8
        0x0000343e:    0000        ..      MOVS     r0,r0
    i.NVIC_EnableIRQ
    NVIC_EnableIRQ
        0x00003440:    06c2        ..      LSLS     r2,r0,#27
        0x00003442:    0ed2        ..      LSRS     r2,r2,#27
        0x00003444:    2101        .!      MOVS     r1,#1
        0x00003446:    4091        .@      LSLS     r1,r1,r2
        0x00003448:    4a01        .J      LDR      r2,[pc,#4] ; [0x3450] = 0xe000e100
        0x0000344a:    6011        .`      STR      r1,[r2,#0]
        0x0000344c:    4770        pG      BX       lr
    $d
        0x0000344e:    0000        ..      DCW    0
        0x00003450:    e000e100    ....    DCD    3758153984
    $t
    i.NVIC_SetPriority
    NVIC_SetPriority
        0x00003454:    b510        ..      PUSH     {r4,lr}
        0x00003456:    2800        .(      CMP      r0,#0
        0x00003458:    da19        ..      BGE      0x348e ; NVIC_SetPriority + 58
        0x0000345a:    4a1a        .J      LDR      r2,[pc,#104] ; [0x34c4] = 0xe000ed1c
        0x0000345c:    0703        ..      LSLS     r3,r0,#28
        0x0000345e:    0f1b        ..      LSRS     r3,r3,#28
        0x00003460:    3b08        .;      SUBS     r3,r3,#8
        0x00003462:    089b        ..      LSRS     r3,r3,#2
        0x00003464:    009b        ..      LSLS     r3,r3,#2
        0x00003466:    58d2        .X      LDR      r2,[r2,r3]
        0x00003468:    0783        ..      LSLS     r3,r0,#30
        0x0000346a:    0edc        ..      LSRS     r4,r3,#27
        0x0000346c:    23ff        .#      MOVS     r3,#0xff
        0x0000346e:    40a3        .@      LSLS     r3,r3,r4
        0x00003470:    439a        .C      BICS     r2,r2,r3
        0x00003472:    078b        ..      LSLS     r3,r1,#30
        0x00003474:    0e1b        ..      LSRS     r3,r3,#24
        0x00003476:    0784        ..      LSLS     r4,r0,#30
        0x00003478:    0ee4        ..      LSRS     r4,r4,#27
        0x0000347a:    40a3        .@      LSLS     r3,r3,r4
        0x0000347c:    431a        .C      ORRS     r2,r2,r3
        0x0000347e:    4b11        .K      LDR      r3,[pc,#68] ; [0x34c4] = 0xe000ed1c
        0x00003480:    0704        ..      LSLS     r4,r0,#28
        0x00003482:    0f24        $.      LSRS     r4,r4,#28
        0x00003484:    3c08        .<      SUBS     r4,r4,#8
        0x00003486:    08a4        ..      LSRS     r4,r4,#2
        0x00003488:    00a4        ..      LSLS     r4,r4,#2
        0x0000348a:    511a        .Q      STR      r2,[r3,r4]
        0x0000348c:    e018        ..      B        0x34c0 ; NVIC_SetPriority + 108
        0x0000348e:    4a0e        .J      LDR      r2,[pc,#56] ; [0x34c8] = 0xe000e100
        0x00003490:    2303        .#      MOVS     r3,#3
        0x00003492:    021b        ..      LSLS     r3,r3,#8
        0x00003494:    18d2        ..      ADDS     r2,r2,r3
        0x00003496:    0883        ..      LSRS     r3,r0,#2
        0x00003498:    009b        ..      LSLS     r3,r3,#2
        0x0000349a:    58d2        .X      LDR      r2,[r2,r3]
        0x0000349c:    0783        ..      LSLS     r3,r0,#30
        0x0000349e:    0edc        ..      LSRS     r4,r3,#27
        0x000034a0:    23ff        .#      MOVS     r3,#0xff
        0x000034a2:    40a3        .@      LSLS     r3,r3,r4
        0x000034a4:    439a        .C      BICS     r2,r2,r3
        0x000034a6:    078b        ..      LSLS     r3,r1,#30
        0x000034a8:    0e1b        ..      LSRS     r3,r3,#24
        0x000034aa:    0784        ..      LSLS     r4,r0,#30
        0x000034ac:    0ee4        ..      LSRS     r4,r4,#27
        0x000034ae:    40a3        .@      LSLS     r3,r3,r4
        0x000034b0:    431a        .C      ORRS     r2,r2,r3
        0x000034b2:    4b05        .K      LDR      r3,[pc,#20] ; [0x34c8] = 0xe000e100
        0x000034b4:    2403        .$      MOVS     r4,#3
        0x000034b6:    0224        $.      LSLS     r4,r4,#8
        0x000034b8:    191b        ..      ADDS     r3,r3,r4
        0x000034ba:    0884        ..      LSRS     r4,r0,#2
        0x000034bc:    00a4        ..      LSLS     r4,r4,#2
        0x000034be:    511a        .Q      STR      r2,[r3,r4]
        0x000034c0:    bd10        ..      POP      {r4,pc}
    $d
        0x000034c2:    0000        ..      DCW    0
        0x000034c4:    e000ed1c    ....    DCD    3758157084
        0x000034c8:    e000e100    ....    DCD    3758153984
    $t
    i.PDMA_IRQHandler
    PDMA_IRQHandler
        0x000034cc:    b570        p.      PUSH     {r4-r6,lr}
        0x000034ce:    2400        .$      MOVS     r4,#0
        0x000034d0:    481d        .H      LDR      r0,[pc,#116] ; [0x3548] = 0x50008f00
        0x000034d2:    68c6        .h      LDR      r6,[r0,#0xc]
        0x000034d4:    bf00        ..      NOP      
        0x000034d6:    e034        4.      B        0x3542 ; PDMA_IRQHandler + 118
        0x000034d8:    0220         .      LSLS     r0,r4,#8
        0x000034da:    491c        .I      LDR      r1,[pc,#112] ; [0x354c] = 0x50008000
        0x000034dc:    1845        E.      ADDS     r5,r0,r1
        0x000034de:    2001        .       MOVS     r0,#1
        0x000034e0:    40a0        .@      LSLS     r0,r0,r4
        0x000034e2:    4230        0B      TST      r0,r6
        0x000034e4:    d02c        ,.      BEQ      0x3540 ; PDMA_IRQHandler + 116
        0x000034e6:    6a68        hj      LDR      r0,[r5,#0x24]
        0x000034e8:    07c0        ..      LSLS     r0,r0,#31
        0x000034ea:    0fc0        ..      LSRS     r0,r0,#31
        0x000034ec:    d011        ..      BEQ      0x3512 ; PDMA_IRQHandler + 70
        0x000034ee:    6a68        hj      LDR      r0,[r5,#0x24]
        0x000034f0:    0840        @.      LSRS     r0,r0,#1
        0x000034f2:    0040        @.      LSLS     r0,r0,#1
        0x000034f4:    1c40        @.      ADDS     r0,r0,#1
        0x000034f6:    6268        hb      STR      r0,[r5,#0x24]
        0x000034f8:    200c        .       MOVS     r0,#0xc
        0x000034fa:    4360        `C      MULS     r0,r4,r0
        0x000034fc:    4914        .I      LDR      r1,[pc,#80] ; [0x3550] = 0x20000328
        0x000034fe:    5808        .X      LDR      r0,[r1,r0]
        0x00003500:    2800        .(      CMP      r0,#0
        0x00003502:    d01d        ..      BEQ      0x3540 ; PDMA_IRQHandler + 116
        0x00003504:    200c        .       MOVS     r0,#0xc
        0x00003506:    4360        `C      MULS     r0,r4,r0
        0x00003508:    460a        .F      MOV      r2,r1
        0x0000350a:    5811        .X      LDR      r1,[r2,r0]
        0x0000350c:    2000        .       MOVS     r0,#0
        0x0000350e:    4788        .G      BLX      r1
        0x00003510:    e016        ..      B        0x3540 ; PDMA_IRQHandler + 116
        0x00003512:    6a68        hj      LDR      r0,[r5,#0x24]
        0x00003514:    0780        ..      LSLS     r0,r0,#30
        0x00003516:    0fc0        ..      LSRS     r0,r0,#31
        0x00003518:    d012        ..      BEQ      0x3540 ; PDMA_IRQHandler + 116
        0x0000351a:    6a68        hj      LDR      r0,[r5,#0x24]
        0x0000351c:    2102        .!      MOVS     r1,#2
        0x0000351e:    4388        .C      BICS     r0,r0,r1
        0x00003520:    1c80        ..      ADDS     r0,r0,#2
        0x00003522:    6268        hb      STR      r0,[r5,#0x24]
        0x00003524:    200c        .       MOVS     r0,#0xc
        0x00003526:    4360        `C      MULS     r0,r4,r0
        0x00003528:    4909        .I      LDR      r1,[pc,#36] ; [0x3550] = 0x20000328
        0x0000352a:    1840        @.      ADDS     r0,r0,r1
        0x0000352c:    6840        @h      LDR      r0,[r0,#4]
        0x0000352e:    2800        .(      CMP      r0,#0
        0x00003530:    d006        ..      BEQ      0x3540 ; PDMA_IRQHandler + 116
        0x00003532:    200c        .       MOVS     r0,#0xc
        0x00003534:    4360        `C      MULS     r0,r4,r0
        0x00003536:    460a        .F      MOV      r2,r1
        0x00003538:    1880        ..      ADDS     r0,r0,r2
        0x0000353a:    6841        Ah      LDR      r1,[r0,#4]
        0x0000353c:    2000        .       MOVS     r0,#0
        0x0000353e:    4788        .G      BLX      r1
        0x00003540:    1c64        d.      ADDS     r4,r4,#1
        0x00003542:    2c09        .,      CMP      r4,#9
        0x00003544:    dbc8        ..      BLT      0x34d8 ; PDMA_IRQHandler + 12
        0x00003546:    bd70        p.      POP      {r4-r6,pc}
    $d
        0x00003548:    50008f00    ...P    DCD    1342213888
        0x0000354c:    50008000    ...P    DCD    1342210048
        0x00003550:    20000328    (..     DCD    536871720
    $t
    i.PWMA_IRQHandler
    PWMA_IRQHandler
        0x00003554:    b570        p.      PUSH     {r4-r6,lr}
        0x00003556:    4853        SH      LDR      r0,[pc,#332] ; [0x36a4] = 0x40040040
        0x00003558:    6844        Dh      LDR      r4,[r0,#4]
        0x0000355a:    07e0        ..      LSLS     r0,r4,#31
        0x0000355c:    0fc0        ..      LSRS     r0,r0,#31
        0x0000355e:    d009        ..      BEQ      0x3574 ; PWMA_IRQHandler + 32
        0x00003560:    2001        .       MOVS     r0,#1
        0x00003562:    4950        PI      LDR      r1,[pc,#320] ; [0x36a4] = 0x40040040
        0x00003564:    6048        H`      STR      r0,[r1,#4]
        0x00003566:    4850        PH      LDR      r0,[pc,#320] ; [0x36a8] = 0x200004a4
        0x00003568:    6800        .h      LDR      r0,[r0,#0]
        0x0000356a:    2800        .(      CMP      r0,#0
        0x0000356c:    d002        ..      BEQ      0x3574 ; PWMA_IRQHandler + 32
        0x0000356e:    494e        NI      LDR      r1,[pc,#312] ; [0x36a8] = 0x200004a4
        0x00003570:    6808        .h      LDR      r0,[r1,#0]
        0x00003572:    4780        .G      BLX      r0
        0x00003574:    2002        .       MOVS     r0,#2
        0x00003576:    4204        .B      TST      r4,r0
        0x00003578:    d008        ..      BEQ      0x358c ; PWMA_IRQHandler + 56
        0x0000357a:    494a        JI      LDR      r1,[pc,#296] ; [0x36a4] = 0x40040040
        0x0000357c:    6048        H`      STR      r0,[r1,#4]
        0x0000357e:    484a        JH      LDR      r0,[pc,#296] ; [0x36a8] = 0x200004a4
        0x00003580:    6880        .h      LDR      r0,[r0,#8]
        0x00003582:    2800        .(      CMP      r0,#0
        0x00003584:    d002        ..      BEQ      0x358c ; PWMA_IRQHandler + 56
        0x00003586:    4948        HI      LDR      r1,[pc,#288] ; [0x36a8] = 0x200004a4
        0x00003588:    6888        .h      LDR      r0,[r1,#8]
        0x0000358a:    4780        .G      BLX      r0
        0x0000358c:    2004        .       MOVS     r0,#4
        0x0000358e:    4204        .B      TST      r4,r0
        0x00003590:    d008        ..      BEQ      0x35a4 ; PWMA_IRQHandler + 80
        0x00003592:    4944        DI      LDR      r1,[pc,#272] ; [0x36a4] = 0x40040040
        0x00003594:    6048        H`      STR      r0,[r1,#4]
        0x00003596:    4844        DH      LDR      r0,[pc,#272] ; [0x36a8] = 0x200004a4
        0x00003598:    6900        .i      LDR      r0,[r0,#0x10]
        0x0000359a:    2800        .(      CMP      r0,#0
        0x0000359c:    d002        ..      BEQ      0x35a4 ; PWMA_IRQHandler + 80
        0x0000359e:    4942        BI      LDR      r1,[pc,#264] ; [0x36a8] = 0x200004a4
        0x000035a0:    6908        .i      LDR      r0,[r1,#0x10]
        0x000035a2:    4780        .G      BLX      r0
        0x000035a4:    2008        .       MOVS     r0,#8
        0x000035a6:    4204        .B      TST      r4,r0
        0x000035a8:    d008        ..      BEQ      0x35bc ; PWMA_IRQHandler + 104
        0x000035aa:    493e        >I      LDR      r1,[pc,#248] ; [0x36a4] = 0x40040040
        0x000035ac:    6048        H`      STR      r0,[r1,#4]
        0x000035ae:    483e        >H      LDR      r0,[pc,#248] ; [0x36a8] = 0x200004a4
        0x000035b0:    6980        .i      LDR      r0,[r0,#0x18]
        0x000035b2:    2800        .(      CMP      r0,#0
        0x000035b4:    d002        ..      BEQ      0x35bc ; PWMA_IRQHandler + 104
        0x000035b6:    493c        <I      LDR      r1,[pc,#240] ; [0x36a8] = 0x200004a4
        0x000035b8:    6988        .i      LDR      r0,[r1,#0x18]
        0x000035ba:    4780        .G      BLX      r0
        0x000035bc:    4839        9H      LDR      r0,[pc,#228] ; [0x36a4] = 0x40040040
        0x000035be:    6905        .i      LDR      r5,[r0,#0x10]
        0x000035c0:    6946        Fi      LDR      r6,[r0,#0x14]
        0x000035c2:    2010        .       MOVS     r0,#0x10
        0x000035c4:    4205        .B      TST      r5,r0
        0x000035c6:    d018        ..      BEQ      0x35fa ; PWMA_IRQHandler + 166
        0x000035c8:    4838        8H      LDR      r0,[pc,#224] ; [0x36ac] = 0x20000144
        0x000035ca:    6800        .h      LDR      r0,[r0,#0]
        0x000035cc:    2800        .(      CMP      r0,#0
        0x000035ce:    d006        ..      BEQ      0x35de ; PWMA_IRQHandler + 138
        0x000035d0:    4834        4H      LDR      r0,[pc,#208] ; [0x36a4] = 0x40040040
        0x000035d2:    6900        .i      LDR      r0,[r0,#0x10]
        0x000035d4:    4936        6I      LDR      r1,[pc,#216] ; [0x36b0] = 0xf001f
        0x000035d6:    4008        .@      ANDS     r0,r0,r1
        0x000035d8:    4932        2I      LDR      r1,[pc,#200] ; [0x36a4] = 0x40040040
        0x000035da:    6108        .a      STR      r0,[r1,#0x10]
        0x000035dc:    e006        ..      B        0x35ec ; PWMA_IRQHandler + 152
        0x000035de:    4831        1H      LDR      r0,[pc,#196] ; [0x36a4] = 0x40040040
        0x000035e0:    6900        .i      LDR      r0,[r0,#0x10]
        0x000035e2:    2101        .!      MOVS     r1,#1
        0x000035e4:    0509        ..      LSLS     r1,r1,#20
        0x000035e6:    4388        .C      BICS     r0,r0,r1
        0x000035e8:    492e        .I      LDR      r1,[pc,#184] ; [0x36a4] = 0x40040040
        0x000035ea:    6108        .a      STR      r0,[r1,#0x10]
        0x000035ec:    482e        .H      LDR      r0,[pc,#184] ; [0x36a8] = 0x200004a4
        0x000035ee:    6840        @h      LDR      r0,[r0,#4]
        0x000035f0:    2800        .(      CMP      r0,#0
        0x000035f2:    d002        ..      BEQ      0x35fa ; PWMA_IRQHandler + 166
        0x000035f4:    492c        ,I      LDR      r1,[pc,#176] ; [0x36a8] = 0x200004a4
        0x000035f6:    6848        Hh      LDR      r0,[r1,#4]
        0x000035f8:    4780        .G      BLX      r0
        0x000035fa:    2001        .       MOVS     r0,#1
        0x000035fc:    0500        ..      LSLS     r0,r0,#20
        0x000035fe:    4205        .B      TST      r5,r0
        0x00003600:    d017        ..      BEQ      0x3632 ; PWMA_IRQHandler + 222
        0x00003602:    482a        *H      LDR      r0,[pc,#168] ; [0x36ac] = 0x20000144
        0x00003604:    6800        .h      LDR      r0,[r0,#0]
        0x00003606:    2800        .(      CMP      r0,#0
        0x00003608:    d006        ..      BEQ      0x3618 ; PWMA_IRQHandler + 196
        0x0000360a:    4826        &H      LDR      r0,[pc,#152] ; [0x36a4] = 0x40040040
        0x0000360c:    6900        .i      LDR      r0,[r0,#0x10]
        0x0000360e:    4929        )I      LDR      r1,[pc,#164] ; [0x36b4] = 0x1f000f
        0x00003610:    4008        .@      ANDS     r0,r0,r1
        0x00003612:    4924        $I      LDR      r1,[pc,#144] ; [0x36a4] = 0x40040040
        0x00003614:    6108        .a      STR      r0,[r1,#0x10]
        0x00003616:    e005        ..      B        0x3624 ; PWMA_IRQHandler + 208
        0x00003618:    4822        "H      LDR      r0,[pc,#136] ; [0x36a4] = 0x40040040
        0x0000361a:    6900        .i      LDR      r0,[r0,#0x10]
        0x0000361c:    2110        .!      MOVS     r1,#0x10
        0x0000361e:    4388        .C      BICS     r0,r0,r1
        0x00003620:    4920         I      LDR      r1,[pc,#128] ; [0x36a4] = 0x40040040
        0x00003622:    6108        .a      STR      r0,[r1,#0x10]
        0x00003624:    4820         H      LDR      r0,[pc,#128] ; [0x36a8] = 0x200004a4
        0x00003626:    68c0        .h      LDR      r0,[r0,#0xc]
        0x00003628:    2800        .(      CMP      r0,#0
        0x0000362a:    d002        ..      BEQ      0x3632 ; PWMA_IRQHandler + 222
        0x0000362c:    491e        .I      LDR      r1,[pc,#120] ; [0x36a8] = 0x200004a4
        0x0000362e:    68c8        .h      LDR      r0,[r1,#0xc]
        0x00003630:    4780        .G      BLX      r0
        0x00003632:    2010        .       MOVS     r0,#0x10
        0x00003634:    4206        .B      TST      r6,r0
        0x00003636:    d018        ..      BEQ      0x366a ; PWMA_IRQHandler + 278
        0x00003638:    481c        .H      LDR      r0,[pc,#112] ; [0x36ac] = 0x20000144
        0x0000363a:    6800        .h      LDR      r0,[r0,#0]
        0x0000363c:    2800        .(      CMP      r0,#0
        0x0000363e:    d006        ..      BEQ      0x364e ; PWMA_IRQHandler + 250
        0x00003640:    4818        .H      LDR      r0,[pc,#96] ; [0x36a4] = 0x40040040
        0x00003642:    6940        @i      LDR      r0,[r0,#0x14]
        0x00003644:    491a        .I      LDR      r1,[pc,#104] ; [0x36b0] = 0xf001f
        0x00003646:    4008        .@      ANDS     r0,r0,r1
        0x00003648:    4916        .I      LDR      r1,[pc,#88] ; [0x36a4] = 0x40040040
        0x0000364a:    6148        Ha      STR      r0,[r1,#0x14]
        0x0000364c:    e006        ..      B        0x365c ; PWMA_IRQHandler + 264
        0x0000364e:    4815        .H      LDR      r0,[pc,#84] ; [0x36a4] = 0x40040040
        0x00003650:    6940        @i      LDR      r0,[r0,#0x14]
        0x00003652:    2101        .!      MOVS     r1,#1
        0x00003654:    0509        ..      LSLS     r1,r1,#20
        0x00003656:    4388        .C      BICS     r0,r0,r1
        0x00003658:    4912        .I      LDR      r1,[pc,#72] ; [0x36a4] = 0x40040040
        0x0000365a:    6148        Ha      STR      r0,[r1,#0x14]
        0x0000365c:    4812        .H      LDR      r0,[pc,#72] ; [0x36a8] = 0x200004a4
        0x0000365e:    6940        @i      LDR      r0,[r0,#0x14]
        0x00003660:    2800        .(      CMP      r0,#0
        0x00003662:    d002        ..      BEQ      0x366a ; PWMA_IRQHandler + 278
        0x00003664:    4910        .I      LDR      r1,[pc,#64] ; [0x36a8] = 0x200004a4
        0x00003666:    6948        Hi      LDR      r0,[r1,#0x14]
        0x00003668:    4780        .G      BLX      r0
        0x0000366a:    2001        .       MOVS     r0,#1
        0x0000366c:    0500        ..      LSLS     r0,r0,#20
        0x0000366e:    4206        .B      TST      r6,r0
        0x00003670:    d017        ..      BEQ      0x36a2 ; PWMA_IRQHandler + 334
        0x00003672:    480e        .H      LDR      r0,[pc,#56] ; [0x36ac] = 0x20000144
        0x00003674:    6800        .h      LDR      r0,[r0,#0]
        0x00003676:    2800        .(      CMP      r0,#0
        0x00003678:    d006        ..      BEQ      0x3688 ; PWMA_IRQHandler + 308
        0x0000367a:    480a        .H      LDR      r0,[pc,#40] ; [0x36a4] = 0x40040040
        0x0000367c:    6940        @i      LDR      r0,[r0,#0x14]
        0x0000367e:    490d        .I      LDR      r1,[pc,#52] ; [0x36b4] = 0x1f000f
        0x00003680:    4008        .@      ANDS     r0,r0,r1
        0x00003682:    4908        .I      LDR      r1,[pc,#32] ; [0x36a4] = 0x40040040
        0x00003684:    6148        Ha      STR      r0,[r1,#0x14]
        0x00003686:    e005        ..      B        0x3694 ; PWMA_IRQHandler + 320
        0x00003688:    4806        .H      LDR      r0,[pc,#24] ; [0x36a4] = 0x40040040
        0x0000368a:    6940        @i      LDR      r0,[r0,#0x14]
        0x0000368c:    2110        .!      MOVS     r1,#0x10
        0x0000368e:    4388        .C      BICS     r0,r0,r1
        0x00003690:    4904        .I      LDR      r1,[pc,#16] ; [0x36a4] = 0x40040040
        0x00003692:    6148        Ha      STR      r0,[r1,#0x14]
        0x00003694:    4804        .H      LDR      r0,[pc,#16] ; [0x36a8] = 0x200004a4
        0x00003696:    69c0        .i      LDR      r0,[r0,#0x1c]
        0x00003698:    2800        .(      CMP      r0,#0
        0x0000369a:    d002        ..      BEQ      0x36a2 ; PWMA_IRQHandler + 334
        0x0000369c:    4902        .I      LDR      r1,[pc,#8] ; [0x36a8] = 0x200004a4
        0x0000369e:    69c8        .i      LDR      r0,[r1,#0x1c]
        0x000036a0:    4780        .G      BLX      r0
        0x000036a2:    bd70        p.      POP      {r4-r6,pc}
    $d
        0x000036a4:    40040040    @..@    DCD    1074004032
        0x000036a8:    200004a4    ...     DCD    536872100
        0x000036ac:    20000144    D..     DCD    536871236
        0x000036b0:    000f001f    ....    DCD    983071
        0x000036b4:    001f000f    ....    DCD    2031631
    $t
    i.PWMB_IRQHandler
    PWMB_IRQHandler
        0x000036b8:    b570        p.      PUSH     {r4-r6,lr}
        0x000036ba:    4853        SH      LDR      r0,[pc,#332] ; [0x3808] = 0x40140040
        0x000036bc:    6844        Dh      LDR      r4,[r0,#4]
        0x000036be:    07e0        ..      LSLS     r0,r4,#31
        0x000036c0:    0fc0        ..      LSRS     r0,r0,#31
        0x000036c2:    d009        ..      BEQ      0x36d8 ; PWMB_IRQHandler + 32
        0x000036c4:    2001        .       MOVS     r0,#1
        0x000036c6:    4950        PI      LDR      r1,[pc,#320] ; [0x3808] = 0x40140040
        0x000036c8:    6048        H`      STR      r0,[r1,#4]
        0x000036ca:    4850        PH      LDR      r0,[pc,#320] ; [0x380c] = 0x200004c4
        0x000036cc:    6800        .h      LDR      r0,[r0,#0]
        0x000036ce:    2800        .(      CMP      r0,#0
        0x000036d0:    d002        ..      BEQ      0x36d8 ; PWMB_IRQHandler + 32
        0x000036d2:    494e        NI      LDR      r1,[pc,#312] ; [0x380c] = 0x200004c4
        0x000036d4:    6808        .h      LDR      r0,[r1,#0]
        0x000036d6:    4780        .G      BLX      r0
        0x000036d8:    2002        .       MOVS     r0,#2
        0x000036da:    4204        .B      TST      r4,r0
        0x000036dc:    d008        ..      BEQ      0x36f0 ; PWMB_IRQHandler + 56
        0x000036de:    494a        JI      LDR      r1,[pc,#296] ; [0x3808] = 0x40140040
        0x000036e0:    6048        H`      STR      r0,[r1,#4]
        0x000036e2:    484a        JH      LDR      r0,[pc,#296] ; [0x380c] = 0x200004c4
        0x000036e4:    6880        .h      LDR      r0,[r0,#8]
        0x000036e6:    2800        .(      CMP      r0,#0
        0x000036e8:    d002        ..      BEQ      0x36f0 ; PWMB_IRQHandler + 56
        0x000036ea:    4948        HI      LDR      r1,[pc,#288] ; [0x380c] = 0x200004c4
        0x000036ec:    6888        .h      LDR      r0,[r1,#8]
        0x000036ee:    4780        .G      BLX      r0
        0x000036f0:    2004        .       MOVS     r0,#4
        0x000036f2:    4204        .B      TST      r4,r0
        0x000036f4:    d008        ..      BEQ      0x3708 ; PWMB_IRQHandler + 80
        0x000036f6:    4944        DI      LDR      r1,[pc,#272] ; [0x3808] = 0x40140040
        0x000036f8:    6048        H`      STR      r0,[r1,#4]
        0x000036fa:    4844        DH      LDR      r0,[pc,#272] ; [0x380c] = 0x200004c4
        0x000036fc:    6900        .i      LDR      r0,[r0,#0x10]
        0x000036fe:    2800        .(      CMP      r0,#0
        0x00003700:    d002        ..      BEQ      0x3708 ; PWMB_IRQHandler + 80
        0x00003702:    4942        BI      LDR      r1,[pc,#264] ; [0x380c] = 0x200004c4
        0x00003704:    6908        .i      LDR      r0,[r1,#0x10]
        0x00003706:    4780        .G      BLX      r0
        0x00003708:    2008        .       MOVS     r0,#8
        0x0000370a:    4204        .B      TST      r4,r0
        0x0000370c:    d008        ..      BEQ      0x3720 ; PWMB_IRQHandler + 104
        0x0000370e:    493e        >I      LDR      r1,[pc,#248] ; [0x3808] = 0x40140040
        0x00003710:    6048        H`      STR      r0,[r1,#4]
        0x00003712:    483e        >H      LDR      r0,[pc,#248] ; [0x380c] = 0x200004c4
        0x00003714:    6980        .i      LDR      r0,[r0,#0x18]
        0x00003716:    2800        .(      CMP      r0,#0
        0x00003718:    d002        ..      BEQ      0x3720 ; PWMB_IRQHandler + 104
        0x0000371a:    493c        <I      LDR      r1,[pc,#240] ; [0x380c] = 0x200004c4
        0x0000371c:    6988        .i      LDR      r0,[r1,#0x18]
        0x0000371e:    4780        .G      BLX      r0
        0x00003720:    4839        9H      LDR      r0,[pc,#228] ; [0x3808] = 0x40140040
        0x00003722:    6905        .i      LDR      r5,[r0,#0x10]
        0x00003724:    6946        Fi      LDR      r6,[r0,#0x14]
        0x00003726:    2010        .       MOVS     r0,#0x10
        0x00003728:    4205        .B      TST      r5,r0
        0x0000372a:    d018        ..      BEQ      0x375e ; PWMB_IRQHandler + 166
        0x0000372c:    4838        8H      LDR      r0,[pc,#224] ; [0x3810] = 0x20000144
        0x0000372e:    6800        .h      LDR      r0,[r0,#0]
        0x00003730:    2800        .(      CMP      r0,#0
        0x00003732:    d006        ..      BEQ      0x3742 ; PWMB_IRQHandler + 138
        0x00003734:    4834        4H      LDR      r0,[pc,#208] ; [0x3808] = 0x40140040
        0x00003736:    6900        .i      LDR      r0,[r0,#0x10]
        0x00003738:    4936        6I      LDR      r1,[pc,#216] ; [0x3814] = 0xf001f
        0x0000373a:    4008        .@      ANDS     r0,r0,r1
        0x0000373c:    4932        2I      LDR      r1,[pc,#200] ; [0x3808] = 0x40140040
        0x0000373e:    6108        .a      STR      r0,[r1,#0x10]
        0x00003740:    e006        ..      B        0x3750 ; PWMB_IRQHandler + 152
        0x00003742:    4831        1H      LDR      r0,[pc,#196] ; [0x3808] = 0x40140040
        0x00003744:    6900        .i      LDR      r0,[r0,#0x10]
        0x00003746:    2101        .!      MOVS     r1,#1
        0x00003748:    0509        ..      LSLS     r1,r1,#20
        0x0000374a:    4388        .C      BICS     r0,r0,r1
        0x0000374c:    492e        .I      LDR      r1,[pc,#184] ; [0x3808] = 0x40140040
        0x0000374e:    6108        .a      STR      r0,[r1,#0x10]
        0x00003750:    482e        .H      LDR      r0,[pc,#184] ; [0x380c] = 0x200004c4
        0x00003752:    6840        @h      LDR      r0,[r0,#4]
        0x00003754:    2800        .(      CMP      r0,#0
        0x00003756:    d002        ..      BEQ      0x375e ; PWMB_IRQHandler + 166
        0x00003758:    492c        ,I      LDR      r1,[pc,#176] ; [0x380c] = 0x200004c4
        0x0000375a:    6848        Hh      LDR      r0,[r1,#4]
        0x0000375c:    4780        .G      BLX      r0
        0x0000375e:    2001        .       MOVS     r0,#1
        0x00003760:    0500        ..      LSLS     r0,r0,#20
        0x00003762:    4205        .B      TST      r5,r0
        0x00003764:    d017        ..      BEQ      0x3796 ; PWMB_IRQHandler + 222
        0x00003766:    482a        *H      LDR      r0,[pc,#168] ; [0x3810] = 0x20000144
        0x00003768:    6800        .h      LDR      r0,[r0,#0]
        0x0000376a:    2800        .(      CMP      r0,#0
        0x0000376c:    d006        ..      BEQ      0x377c ; PWMB_IRQHandler + 196
        0x0000376e:    4826        &H      LDR      r0,[pc,#152] ; [0x3808] = 0x40140040
        0x00003770:    6900        .i      LDR      r0,[r0,#0x10]
        0x00003772:    4929        )I      LDR      r1,[pc,#164] ; [0x3818] = 0x1f000f
        0x00003774:    4008        .@      ANDS     r0,r0,r1
        0x00003776:    4924        $I      LDR      r1,[pc,#144] ; [0x3808] = 0x40140040
        0x00003778:    6108        .a      STR      r0,[r1,#0x10]
        0x0000377a:    e005        ..      B        0x3788 ; PWMB_IRQHandler + 208
        0x0000377c:    4822        "H      LDR      r0,[pc,#136] ; [0x3808] = 0x40140040
        0x0000377e:    6900        .i      LDR      r0,[r0,#0x10]
        0x00003780:    2110        .!      MOVS     r1,#0x10
        0x00003782:    4388        .C      BICS     r0,r0,r1
        0x00003784:    4920         I      LDR      r1,[pc,#128] ; [0x3808] = 0x40140040
        0x00003786:    6108        .a      STR      r0,[r1,#0x10]
        0x00003788:    4820         H      LDR      r0,[pc,#128] ; [0x380c] = 0x200004c4
        0x0000378a:    68c0        .h      LDR      r0,[r0,#0xc]
        0x0000378c:    2800        .(      CMP      r0,#0
        0x0000378e:    d002        ..      BEQ      0x3796 ; PWMB_IRQHandler + 222
        0x00003790:    491e        .I      LDR      r1,[pc,#120] ; [0x380c] = 0x200004c4
        0x00003792:    68c8        .h      LDR      r0,[r1,#0xc]
        0x00003794:    4780        .G      BLX      r0
        0x00003796:    2010        .       MOVS     r0,#0x10
        0x00003798:    4206        .B      TST      r6,r0
        0x0000379a:    d018        ..      BEQ      0x37ce ; PWMB_IRQHandler + 278
        0x0000379c:    481c        .H      LDR      r0,[pc,#112] ; [0x3810] = 0x20000144
        0x0000379e:    6800        .h      LDR      r0,[r0,#0]
        0x000037a0:    2800        .(      CMP      r0,#0
        0x000037a2:    d006        ..      BEQ      0x37b2 ; PWMB_IRQHandler + 250
        0x000037a4:    4818        .H      LDR      r0,[pc,#96] ; [0x3808] = 0x40140040
        0x000037a6:    6940        @i      LDR      r0,[r0,#0x14]
        0x000037a8:    491a        .I      LDR      r1,[pc,#104] ; [0x3814] = 0xf001f
        0x000037aa:    4008        .@      ANDS     r0,r0,r1
        0x000037ac:    4916        .I      LDR      r1,[pc,#88] ; [0x3808] = 0x40140040
        0x000037ae:    6148        Ha      STR      r0,[r1,#0x14]
        0x000037b0:    e006        ..      B        0x37c0 ; PWMB_IRQHandler + 264
        0x000037b2:    4815        .H      LDR      r0,[pc,#84] ; [0x3808] = 0x40140040
        0x000037b4:    6940        @i      LDR      r0,[r0,#0x14]
        0x000037b6:    2101        .!      MOVS     r1,#1
        0x000037b8:    0509        ..      LSLS     r1,r1,#20
        0x000037ba:    4388        .C      BICS     r0,r0,r1
        0x000037bc:    4912        .I      LDR      r1,[pc,#72] ; [0x3808] = 0x40140040
        0x000037be:    6148        Ha      STR      r0,[r1,#0x14]
        0x000037c0:    4812        .H      LDR      r0,[pc,#72] ; [0x380c] = 0x200004c4
        0x000037c2:    6940        @i      LDR      r0,[r0,#0x14]
        0x000037c4:    2800        .(      CMP      r0,#0
        0x000037c6:    d002        ..      BEQ      0x37ce ; PWMB_IRQHandler + 278
        0x000037c8:    4910        .I      LDR      r1,[pc,#64] ; [0x380c] = 0x200004c4
        0x000037ca:    6948        Hi      LDR      r0,[r1,#0x14]
        0x000037cc:    4780        .G      BLX      r0
        0x000037ce:    2001        .       MOVS     r0,#1
        0x000037d0:    0500        ..      LSLS     r0,r0,#20
        0x000037d2:    4206        .B      TST      r6,r0
        0x000037d4:    d017        ..      BEQ      0x3806 ; PWMB_IRQHandler + 334
        0x000037d6:    480e        .H      LDR      r0,[pc,#56] ; [0x3810] = 0x20000144
        0x000037d8:    6800        .h      LDR      r0,[r0,#0]
        0x000037da:    2800        .(      CMP      r0,#0
        0x000037dc:    d006        ..      BEQ      0x37ec ; PWMB_IRQHandler + 308
        0x000037de:    480a        .H      LDR      r0,[pc,#40] ; [0x3808] = 0x40140040
        0x000037e0:    6940        @i      LDR      r0,[r0,#0x14]
        0x000037e2:    490d        .I      LDR      r1,[pc,#52] ; [0x3818] = 0x1f000f
        0x000037e4:    4008        .@      ANDS     r0,r0,r1
        0x000037e6:    4908        .I      LDR      r1,[pc,#32] ; [0x3808] = 0x40140040
        0x000037e8:    6148        Ha      STR      r0,[r1,#0x14]
        0x000037ea:    e005        ..      B        0x37f8 ; PWMB_IRQHandler + 320
        0x000037ec:    4806        .H      LDR      r0,[pc,#24] ; [0x3808] = 0x40140040
        0x000037ee:    6940        @i      LDR      r0,[r0,#0x14]
        0x000037f0:    2110        .!      MOVS     r1,#0x10
        0x000037f2:    4388        .C      BICS     r0,r0,r1
        0x000037f4:    4904        .I      LDR      r1,[pc,#16] ; [0x3808] = 0x40140040
        0x000037f6:    6148        Ha      STR      r0,[r1,#0x14]
        0x000037f8:    4804        .H      LDR      r0,[pc,#16] ; [0x380c] = 0x200004c4
        0x000037fa:    69c0        .i      LDR      r0,[r0,#0x1c]
        0x000037fc:    2800        .(      CMP      r0,#0
        0x000037fe:    d002        ..      BEQ      0x3806 ; PWMB_IRQHandler + 334
        0x00003800:    4902        .I      LDR      r1,[pc,#8] ; [0x380c] = 0x200004c4
        0x00003802:    69c8        .i      LDR      r0,[r1,#0x1c]
        0x00003804:    4780        .G      BLX      r0
        0x00003806:    bd70        p.      POP      {r4-r6,pc}
    $d
        0x00003808:    40140040    @..@    DCD    1075052608
        0x0000380c:    200004c4    ...     DCD    536872132
        0x00003810:    20000144    D..     DCD    536871236
        0x00003814:    000f001f    ....    DCD    983071
        0x00003818:    001f000f    ....    DCD    2031631
    $t
    i.PWM_Configuration
    PWM_Configuration
        0x0000381c:    b57f        ..      PUSH     {r0-r6,lr}
        0x0000381e:    4604        .F      MOV      r4,r0
        0x00003820:    460d        .F      MOV      r5,r1
        0x00003822:    2101        .!      MOVS     r1,#1
        0x00003824:    4668        hF      MOV      r0,sp
        0x00003826:    7001        .p      STRB     r1,[r0,#0]
        0x00003828:    9401        ..      STR      r4,[sp,#4]
        0x0000382a:    7045        Ep      STRB     r5,[r0,#1]
        0x0000382c:    2000        .       MOVS     r0,#0
        0x0000382e:    9003        ..      STR      r0,[sp,#0xc]
        0x00003830:    f7fdfb66    ..f.    BL       DrvPWM_Open ; 0xf00
        0x00003834:    2100        .!      MOVS     r1,#0
        0x00003836:    2007        .       MOVS     r0,#7
        0x00003838:    f7fef954    ..T.    BL       DrvSYS_SelectIPClockSource ; 0x1ae4
        0x0000383c:    4669        iF      MOV      r1,sp
        0x0000383e:    2000        .       MOVS     r0,#0
        0x00003840:    f7fdfb7a    ..z.    BL       DrvPWM_SetTimerClk ; 0xf38
        0x00003844:    2101        .!      MOVS     r1,#1
        0x00003846:    2000        .       MOVS     r0,#0
        0x00003848:    f7fdff84    ....    BL       DrvPWM_SetTimerIO ; 0x1754
        0x0000384c:    2030        0       MOVS     r0,#0x30
        0x0000384e:    f7fcfe41    ..A.    BL       DrvGPIO_InitFunction ; 0x4d4
        0x00003852:    2101        .!      MOVS     r1,#1
        0x00003854:    2000        .       MOVS     r0,#0
        0x00003856:    f7fdfa25    ..%.    BL       DrvPWM_Enable ; 0xca4
        0x0000385a:    bd7f        ..      POP      {r0-r6,pc}
    i.PWRWU_IRQHandler
    PWRWU_IRQHandler
        0x0000385c:    b510        ..      PUSH     {r4,lr}
        0x0000385e:    4807        .H      LDR      r0,[pc,#28] ; [0x387c] = 0x50000200
        0x00003860:    6800        .h      LDR      r0,[r0,#0]
        0x00003862:    2140        @!      MOVS     r1,#0x40
        0x00003864:    4388        .C      BICS     r0,r0,r1
        0x00003866:    3040        @0      ADDS     r0,r0,#0x40
        0x00003868:    4904        .I      LDR      r1,[pc,#16] ; [0x387c] = 0x50000200
        0x0000386a:    6008        .`      STR      r0,[r1,#0]
        0x0000386c:    4804        .H      LDR      r0,[pc,#16] ; [0x3880] = 0x200000d0
        0x0000386e:    6800        .h      LDR      r0,[r0,#0]
        0x00003870:    2800        .(      CMP      r0,#0
        0x00003872:    d002        ..      BEQ      0x387a ; PWRWU_IRQHandler + 30
        0x00003874:    4802        .H      LDR      r0,[pc,#8] ; [0x3880] = 0x200000d0
        0x00003876:    6800        .h      LDR      r0,[r0,#0]
        0x00003878:    4780        .G      BLX      r0
        0x0000387a:    bd10        ..      POP      {r4,pc}
    $d
        0x0000387c:    50000200    ...P    DCD    1342177792
        0x00003880:    200000d0    ...     DCD    536871120
    $t
    i.SystemCoreClockUpdate
    SystemCoreClockUpdate
        0x00003884:    b570        p.      PUSH     {r4-r6,lr}
        0x00003886:    4820         H      LDR      r0,[pc,#128] ; [0x3908] = 0x50000200
        0x00003888:    6900        .i      LDR      r0,[r0,#0x10]
        0x0000388a:    0746        F.      LSLS     r6,r0,#29
        0x0000388c:    0f76        v.      LSRS     r6,r6,#29
        0x0000388e:    2e05        ..      CMP      r6,#5
        0x00003890:    d900        ..      BLS      0x3894 ; SystemCoreClockUpdate + 16
        0x00003892:    2604        .&      MOVS     r6,#4
        0x00003894:    2e02        ..      CMP      r6,#2
        0x00003896:    d003        ..      BEQ      0x38a0 ; SystemCoreClockUpdate + 28
        0x00003898:    00b0        ..      LSLS     r0,r6,#2
        0x0000389a:    491c        .I      LDR      r1,[pc,#112] ; [0x390c] = 0x20000008
        0x0000389c:    580d        .X      LDR      r5,[r1,r0]
        0x0000389e:    e01e        ..      B        0x38de ; SystemCoreClockUpdate + 90
        0x000038a0:    4819        .H      LDR      r0,[pc,#100] ; [0x3908] = 0x50000200
        0x000038a2:    6a00        .j      LDR      r0,[r0,#0x20]
        0x000038a4:    0400        ..      LSLS     r0,r0,#16
        0x000038a6:    0f84        ..      LSRS     r4,r0,#30
        0x000038a8:    2c01        .,      CMP      r4,#1
        0x000038aa:    d900        ..      BLS      0x38ae ; SystemCoreClockUpdate + 42
        0x000038ac:    1e64        d.      SUBS     r4,r4,#1
        0x000038ae:    4a16        .J      LDR      r2,[pc,#88] ; [0x3908] = 0x50000200
        0x000038b0:    6a12        .j      LDR      r2,[r2,#0x20]
        0x000038b2:    0312        ..      LSLS     r2,r2,#12
        0x000038b4:    0fd2        ..      LSRS     r2,r2,#31
        0x000038b6:    d001        ..      BEQ      0x38bc ; SystemCoreClockUpdate + 56
        0x000038b8:    4a15        .J      LDR      r2,[pc,#84] ; [0x3910] = 0x1518000
        0x000038ba:    e000        ..      B        0x38be ; SystemCoreClockUpdate + 58
        0x000038bc:    4a15        .J      LDR      r2,[pc,#84] ; [0x3914] = 0xb71b00
        0x000038be:    4b12        .K      LDR      r3,[pc,#72] ; [0x3908] = 0x50000200
        0x000038c0:    6a1b        .j      LDR      r3,[r3,#0x20]
        0x000038c2:    05db        ..      LSLS     r3,r3,#23
        0x000038c4:    0ddb        ..      LSRS     r3,r3,#23
        0x000038c6:    1c9b        ..      ADDS     r3,r3,#2
        0x000038c8:    4610        .F      MOV      r0,r2
        0x000038ca:    4358        XC      MULS     r0,r3,r0
        0x000038cc:    4a0e        .J      LDR      r2,[pc,#56] ; [0x3908] = 0x50000200
        0x000038ce:    6a12        .j      LDR      r2,[r2,#0x20]
        0x000038d0:    0492        ..      LSLS     r2,r2,#18
        0x000038d2:    0ed2        ..      LSRS     r2,r2,#27
        0x000038d4:    1c91        ..      ADDS     r1,r2,#2
        0x000038d6:    f7fcfc79    ..y.    BL       __aeabi_uidiv ; 0x1cc
        0x000038da:    40e0        .@      LSRS     r0,r0,r4
        0x000038dc:    4605        .F      MOV      r5,r0
        0x000038de:    480a        .H      LDR      r0,[pc,#40] ; [0x3908] = 0x50000200
        0x000038e0:    6980        .i      LDR      r0,[r0,#0x18]
        0x000038e2:    0700        ..      LSLS     r0,r0,#28
        0x000038e4:    0f00        ..      LSRS     r0,r0,#28
        0x000038e6:    1c41        A.      ADDS     r1,r0,#1
        0x000038e8:    4628        (F      MOV      r0,r5
        0x000038ea:    f7fcfc6f    ..o.    BL       __aeabi_uidiv ; 0x1cc
        0x000038ee:    490a        .I      LDR      r1,[pc,#40] ; [0x3918] = 0x20000000
        0x000038f0:    6008        .`      STR      r0,[r1,#0]
        0x000038f2:    490a        .I      LDR      r1,[pc,#40] ; [0x391c] = 0xf4240
        0x000038f4:    4808        .H      LDR      r0,[pc,#32] ; [0x3918] = 0x20000000
        0x000038f6:    6800        .h      LDR      r0,[r0,#0]
        0x000038f8:    104a        J.      ASRS     r2,r1,#1
        0x000038fa:    1880        ..      ADDS     r0,r0,r2
        0x000038fc:    f7fcfc66    ..f.    BL       __aeabi_uidiv ; 0x1cc
        0x00003900:    4907        .I      LDR      r1,[pc,#28] ; [0x3920] = 0x20000004
        0x00003902:    6008        .`      STR      r0,[r1,#0]
        0x00003904:    bd70        p.      POP      {r4-r6,pc}
    $d
        0x00003906:    0000        ..      DCW    0
        0x00003908:    50000200    ...P    DCD    1342177792
        0x0000390c:    20000008    ...     DCD    536870920
        0x00003910:    01518000    ..Q.    DCD    22118400
        0x00003914:    00b71b00    ....    DCD    12000000
        0x00003918:    20000000    ...     DCD    536870912
        0x0000391c:    000f4240    @B..    DCD    1000000
        0x00003920:    20000004    ...     DCD    536870916
    $t
    i.SystemInit
    SystemInit
        0x00003924:    4770        pG      BX       lr
        0x00003926:    0000        ..      MOVS     r0,r0
    i.TIMER_Configuration
    TIMER_Configuration
        0x00003928:    b510        ..      PUSH     {r4,lr}
        0x0000392a:    f7fef9ef    ....    BL       DrvTIMER_Init ; 0x1d0c
        0x0000392e:    2100        .!      MOVS     r1,#0
        0x00003930:    2002        .       MOVS     r0,#2
        0x00003932:    f7fef8d7    ....    BL       DrvSYS_SelectIPClockSource ; 0x1ae4
        0x00003936:    2201        ."      MOVS     r2,#1
        0x00003938:    4908        .I      LDR      r1,[pc,#32] ; [0x395c] = 0x9c4
        0x0000393a:    2000        .       MOVS     r0,#0
        0x0000393c:    f7fef9f8    ....    BL       DrvTIMER_Open ; 0x1d30
        0x00003940:    2300        .#      MOVS     r3,#0
        0x00003942:    4a07        .J      LDR      r2,[pc,#28] ; [0x3960] = 0x3bb5
        0x00003944:    2101        .!      MOVS     r1,#1
        0x00003946:    4618        .F      MOV      r0,r3
        0x00003948:    f7fefb68    ..h.    BL       DrvTIMER_SetTimerEvent ; 0x201c
        0x0000394c:    2000        .       MOVS     r0,#0
        0x0000394e:    f7fef9af    ....    BL       DrvTIMER_EnableInt ; 0x1cb0
        0x00003952:    2000        .       MOVS     r0,#0
        0x00003954:    f7fefc5c    ..\.    BL       DrvTIMER_Start ; 0x2210
        0x00003958:    bd10        ..      POP      {r4,pc}
    $d
        0x0000395a:    0000        ..      DCW    0
        0x0000395c:    000009c4    ....    DCD    2500
        0x00003960:    00003bb5    .;..    DCD    15285
    $t
    i.TMR0_IRQHandler
    TMR0_IRQHandler
        0x00003964:    b510        ..      PUSH     {r4,lr}
        0x00003966:    4821        !H      LDR      r0,[pc,#132] ; [0x39ec] = 0x40010000
        0x00003968:    6800        .h      LDR      r0,[r0,#0]
        0x0000396a:    0080        ..      LSLS     r0,r0,#2
        0x0000396c:    0fc0        ..      LSRS     r0,r0,#31
        0x0000396e:    d00b        ..      BEQ      0x3988 ; TMR0_IRQHandler + 36
        0x00003970:    481e        .H      LDR      r0,[pc,#120] ; [0x39ec] = 0x40010000
        0x00003972:    6880        .h      LDR      r0,[r0,#8]
        0x00003974:    07c0        ..      LSLS     r0,r0,#31
        0x00003976:    0fc0        ..      LSRS     r0,r0,#31
        0x00003978:    d006        ..      BEQ      0x3988 ; TMR0_IRQHandler + 36
        0x0000397a:    481c        .H      LDR      r0,[pc,#112] ; [0x39ec] = 0x40010000
        0x0000397c:    6880        .h      LDR      r0,[r0,#8]
        0x0000397e:    0840        @.      LSRS     r0,r0,#1
        0x00003980:    0040        @.      LSLS     r0,r0,#1
        0x00003982:    1c40        @.      ADDS     r0,r0,#1
        0x00003984:    4919        .I      LDR      r1,[pc,#100] ; [0x39ec] = 0x40010000
        0x00003986:    6088        .`      STR      r0,[r1,#8]
        0x00003988:    4818        .H      LDR      r0,[pc,#96] ; [0x39ec] = 0x40010000
        0x0000398a:    6940        @i      LDR      r0,[r0,#0x14]
        0x0000398c:    0700        ..      LSLS     r0,r0,#28
        0x0000398e:    0fc0        ..      LSRS     r0,r0,#31
        0x00003990:    d010        ..      BEQ      0x39b4 ; TMR0_IRQHandler + 80
        0x00003992:    4816        .H      LDR      r0,[pc,#88] ; [0x39ec] = 0x40010000
        0x00003994:    6940        @i      LDR      r0,[r0,#0x14]
        0x00003996:    0680        ..      LSLS     r0,r0,#26
        0x00003998:    0fc0        ..      LSRS     r0,r0,#31
        0x0000399a:    d00b        ..      BEQ      0x39b4 ; TMR0_IRQHandler + 80
        0x0000399c:    4813        .H      LDR      r0,[pc,#76] ; [0x39ec] = 0x40010000
        0x0000399e:    6980        .i      LDR      r0,[r0,#0x18]
        0x000039a0:    07c0        ..      LSLS     r0,r0,#31
        0x000039a2:    0fc0        ..      LSRS     r0,r0,#31
        0x000039a4:    d006        ..      BEQ      0x39b4 ; TMR0_IRQHandler + 80
        0x000039a6:    4811        .H      LDR      r0,[pc,#68] ; [0x39ec] = 0x40010000
        0x000039a8:    6980        .i      LDR      r0,[r0,#0x18]
        0x000039aa:    0840        @.      LSRS     r0,r0,#1
        0x000039ac:    0040        @.      LSLS     r0,r0,#1
        0x000039ae:    1c40        @.      ADDS     r0,r0,#1
        0x000039b0:    490e        .I      LDR      r1,[pc,#56] ; [0x39ec] = 0x40010000
        0x000039b2:    6188        .a      STR      r0,[r1,#0x18]
        0x000039b4:    480e        .H      LDR      r0,[pc,#56] ; [0x39f0] = 0x20000104
        0x000039b6:    6800        .h      LDR      r0,[r0,#0]
        0x000039b8:    1c40        @.      ADDS     r0,r0,#1
        0x000039ba:    490d        .I      LDR      r1,[pc,#52] ; [0x39f0] = 0x20000104
        0x000039bc:    6008        .`      STR      r0,[r1,#0]
        0x000039be:    480d        .H      LDR      r0,[pc,#52] ; [0x39f4] = 0x20000394
        0x000039c0:    6800        .h      LDR      r0,[r0,#0]
        0x000039c2:    2800        .(      CMP      r0,#0
        0x000039c4:    d010        ..      BEQ      0x39e8 ; TMR0_IRQHandler + 132
        0x000039c6:    480b        .H      LDR      r0,[pc,#44] ; [0x39f4] = 0x20000394
        0x000039c8:    6880        .h      LDR      r0,[r0,#8]
        0x000039ca:    1e40        @.      SUBS     r0,r0,#1
        0x000039cc:    4909        .I      LDR      r1,[pc,#36] ; [0x39f4] = 0x20000394
        0x000039ce:    6088        .`      STR      r0,[r1,#8]
        0x000039d0:    4608        .F      MOV      r0,r1
        0x000039d2:    6880        .h      LDR      r0,[r0,#8]
        0x000039d4:    2800        .(      CMP      r0,#0
        0x000039d6:    d107        ..      BNE      0x39e8 ; TMR0_IRQHandler + 132
        0x000039d8:    460a        .F      MOV      r2,r1
        0x000039da:    6910        .i      LDR      r0,[r2,#0x10]
        0x000039dc:    68d1        .h      LDR      r1,[r2,#0xc]
        0x000039de:    4788        .G      BLX      r1
        0x000039e0:    4804        .H      LDR      r0,[pc,#16] ; [0x39f4] = 0x20000394
        0x000039e2:    6840        @h      LDR      r0,[r0,#4]
        0x000039e4:    4903        .I      LDR      r1,[pc,#12] ; [0x39f4] = 0x20000394
        0x000039e6:    6088        .`      STR      r0,[r1,#8]
        0x000039e8:    bd10        ..      POP      {r4,pc}
    $d
        0x000039ea:    0000        ..      DCW    0
        0x000039ec:    40010000    ...@    DCD    1073807360
        0x000039f0:    20000104    ...     DCD    536871172
        0x000039f4:    20000394    ...     DCD    536871828
    $t
    i.TMR1_IRQHandler
    TMR1_IRQHandler
        0x000039f8:    b510        ..      PUSH     {r4,lr}
        0x000039fa:    4821        !H      LDR      r0,[pc,#132] ; [0x3a80] = 0x40010000
        0x000039fc:    6a00        .j      LDR      r0,[r0,#0x20]
        0x000039fe:    0080        ..      LSLS     r0,r0,#2
        0x00003a00:    0fc0        ..      LSRS     r0,r0,#31
        0x00003a02:    d00b        ..      BEQ      0x3a1c ; TMR1_IRQHandler + 36
        0x00003a04:    481e        .H      LDR      r0,[pc,#120] ; [0x3a80] = 0x40010000
        0x00003a06:    6a80        .j      LDR      r0,[r0,#0x28]
        0x00003a08:    07c0        ..      LSLS     r0,r0,#31
        0x00003a0a:    0fc0        ..      LSRS     r0,r0,#31
        0x00003a0c:    d006        ..      BEQ      0x3a1c ; TMR1_IRQHandler + 36
        0x00003a0e:    481c        .H      LDR      r0,[pc,#112] ; [0x3a80] = 0x40010000
        0x00003a10:    6a80        .j      LDR      r0,[r0,#0x28]
        0x00003a12:    0840        @.      LSRS     r0,r0,#1
        0x00003a14:    0040        @.      LSLS     r0,r0,#1
        0x00003a16:    1c40        @.      ADDS     r0,r0,#1
        0x00003a18:    4919        .I      LDR      r1,[pc,#100] ; [0x3a80] = 0x40010000
        0x00003a1a:    6288        .b      STR      r0,[r1,#0x28]
        0x00003a1c:    4818        .H      LDR      r0,[pc,#96] ; [0x3a80] = 0x40010000
        0x00003a1e:    6b40        @k      LDR      r0,[r0,#0x34]
        0x00003a20:    0700        ..      LSLS     r0,r0,#28
        0x00003a22:    0fc0        ..      LSRS     r0,r0,#31
        0x00003a24:    d010        ..      BEQ      0x3a48 ; TMR1_IRQHandler + 80
        0x00003a26:    4816        .H      LDR      r0,[pc,#88] ; [0x3a80] = 0x40010000
        0x00003a28:    6b40        @k      LDR      r0,[r0,#0x34]
        0x00003a2a:    0680        ..      LSLS     r0,r0,#26
        0x00003a2c:    0fc0        ..      LSRS     r0,r0,#31
        0x00003a2e:    d00b        ..      BEQ      0x3a48 ; TMR1_IRQHandler + 80
        0x00003a30:    4813        .H      LDR      r0,[pc,#76] ; [0x3a80] = 0x40010000
        0x00003a32:    6b80        .k      LDR      r0,[r0,#0x38]
        0x00003a34:    07c0        ..      LSLS     r0,r0,#31
        0x00003a36:    0fc0        ..      LSRS     r0,r0,#31
        0x00003a38:    d006        ..      BEQ      0x3a48 ; TMR1_IRQHandler + 80
        0x00003a3a:    4811        .H      LDR      r0,[pc,#68] ; [0x3a80] = 0x40010000
        0x00003a3c:    6b80        .k      LDR      r0,[r0,#0x38]
        0x00003a3e:    0840        @.      LSRS     r0,r0,#1
        0x00003a40:    0040        @.      LSLS     r0,r0,#1
        0x00003a42:    1c40        @.      ADDS     r0,r0,#1
        0x00003a44:    490e        .I      LDR      r1,[pc,#56] ; [0x3a80] = 0x40010000
        0x00003a46:    6388        .c      STR      r0,[r1,#0x38]
        0x00003a48:    480e        .H      LDR      r0,[pc,#56] ; [0x3a84] = 0x20000108
        0x00003a4a:    6800        .h      LDR      r0,[r0,#0]
        0x00003a4c:    1c40        @.      ADDS     r0,r0,#1
        0x00003a4e:    490d        .I      LDR      r1,[pc,#52] ; [0x3a84] = 0x20000108
        0x00003a50:    6008        .`      STR      r0,[r1,#0]
        0x00003a52:    480d        .H      LDR      r0,[pc,#52] ; [0x3a88] = 0x200003a8
        0x00003a54:    6800        .h      LDR      r0,[r0,#0]
        0x00003a56:    2800        .(      CMP      r0,#0
        0x00003a58:    d010        ..      BEQ      0x3a7c ; TMR1_IRQHandler + 132
        0x00003a5a:    480b        .H      LDR      r0,[pc,#44] ; [0x3a88] = 0x200003a8
        0x00003a5c:    6880        .h      LDR      r0,[r0,#8]
        0x00003a5e:    1e40        @.      SUBS     r0,r0,#1
        0x00003a60:    4909        .I      LDR      r1,[pc,#36] ; [0x3a88] = 0x200003a8
        0x00003a62:    6088        .`      STR      r0,[r1,#8]
        0x00003a64:    4608        .F      MOV      r0,r1
        0x00003a66:    6880        .h      LDR      r0,[r0,#8]
        0x00003a68:    2800        .(      CMP      r0,#0
        0x00003a6a:    d107        ..      BNE      0x3a7c ; TMR1_IRQHandler + 132
        0x00003a6c:    460a        .F      MOV      r2,r1
        0x00003a6e:    6910        .i      LDR      r0,[r2,#0x10]
        0x00003a70:    68d1        .h      LDR      r1,[r2,#0xc]
        0x00003a72:    4788        .G      BLX      r1
        0x00003a74:    4804        .H      LDR      r0,[pc,#16] ; [0x3a88] = 0x200003a8
        0x00003a76:    6840        @h      LDR      r0,[r0,#4]
        0x00003a78:    4903        .I      LDR      r1,[pc,#12] ; [0x3a88] = 0x200003a8
        0x00003a7a:    6088        .`      STR      r0,[r1,#8]
        0x00003a7c:    bd10        ..      POP      {r4,pc}
    $d
        0x00003a7e:    0000        ..      DCW    0
        0x00003a80:    40010000    ...@    DCD    1073807360
        0x00003a84:    20000108    ...     DCD    536871176
        0x00003a88:    200003a8    ...     DCD    536871848
    $t
    i.TMR2_IRQHandler
    TMR2_IRQHandler
        0x00003a8c:    b510        ..      PUSH     {r4,lr}
        0x00003a8e:    4821        !H      LDR      r0,[pc,#132] ; [0x3b14] = 0x40110000
        0x00003a90:    6800        .h      LDR      r0,[r0,#0]
        0x00003a92:    0080        ..      LSLS     r0,r0,#2
        0x00003a94:    0fc0        ..      LSRS     r0,r0,#31
        0x00003a96:    d00b        ..      BEQ      0x3ab0 ; TMR2_IRQHandler + 36
        0x00003a98:    481e        .H      LDR      r0,[pc,#120] ; [0x3b14] = 0x40110000
        0x00003a9a:    6880        .h      LDR      r0,[r0,#8]
        0x00003a9c:    07c0        ..      LSLS     r0,r0,#31
        0x00003a9e:    0fc0        ..      LSRS     r0,r0,#31
        0x00003aa0:    d006        ..      BEQ      0x3ab0 ; TMR2_IRQHandler + 36
        0x00003aa2:    481c        .H      LDR      r0,[pc,#112] ; [0x3b14] = 0x40110000
        0x00003aa4:    6880        .h      LDR      r0,[r0,#8]
        0x00003aa6:    0840        @.      LSRS     r0,r0,#1
        0x00003aa8:    0040        @.      LSLS     r0,r0,#1
        0x00003aaa:    1c40        @.      ADDS     r0,r0,#1
        0x00003aac:    4919        .I      LDR      r1,[pc,#100] ; [0x3b14] = 0x40110000
        0x00003aae:    6088        .`      STR      r0,[r1,#8]
        0x00003ab0:    4818        .H      LDR      r0,[pc,#96] ; [0x3b14] = 0x40110000
        0x00003ab2:    6940        @i      LDR      r0,[r0,#0x14]
        0x00003ab4:    0700        ..      LSLS     r0,r0,#28
        0x00003ab6:    0fc0        ..      LSRS     r0,r0,#31
        0x00003ab8:    d010        ..      BEQ      0x3adc ; TMR2_IRQHandler + 80
        0x00003aba:    4816        .H      LDR      r0,[pc,#88] ; [0x3b14] = 0x40110000
        0x00003abc:    6940        @i      LDR      r0,[r0,#0x14]
        0x00003abe:    0680        ..      LSLS     r0,r0,#26
        0x00003ac0:    0fc0        ..      LSRS     r0,r0,#31
        0x00003ac2:    d00b        ..      BEQ      0x3adc ; TMR2_IRQHandler + 80
        0x00003ac4:    4813        .H      LDR      r0,[pc,#76] ; [0x3b14] = 0x40110000
        0x00003ac6:    6980        .i      LDR      r0,[r0,#0x18]
        0x00003ac8:    07c0        ..      LSLS     r0,r0,#31
        0x00003aca:    0fc0        ..      LSRS     r0,r0,#31
        0x00003acc:    d006        ..      BEQ      0x3adc ; TMR2_IRQHandler + 80
        0x00003ace:    4811        .H      LDR      r0,[pc,#68] ; [0x3b14] = 0x40110000
        0x00003ad0:    6980        .i      LDR      r0,[r0,#0x18]
        0x00003ad2:    0840        @.      LSRS     r0,r0,#1
        0x00003ad4:    0040        @.      LSLS     r0,r0,#1
        0x00003ad6:    1c40        @.      ADDS     r0,r0,#1
        0x00003ad8:    490e        .I      LDR      r1,[pc,#56] ; [0x3b14] = 0x40110000
        0x00003ada:    6188        .a      STR      r0,[r1,#0x18]
        0x00003adc:    480e        .H      LDR      r0,[pc,#56] ; [0x3b18] = 0x2000010c
        0x00003ade:    6800        .h      LDR      r0,[r0,#0]
        0x00003ae0:    1c40        @.      ADDS     r0,r0,#1
        0x00003ae2:    490d        .I      LDR      r1,[pc,#52] ; [0x3b18] = 0x2000010c
        0x00003ae4:    6008        .`      STR      r0,[r1,#0]
        0x00003ae6:    480d        .H      LDR      r0,[pc,#52] ; [0x3b1c] = 0x200003bc
        0x00003ae8:    6800        .h      LDR      r0,[r0,#0]
        0x00003aea:    2800        .(      CMP      r0,#0
        0x00003aec:    d010        ..      BEQ      0x3b10 ; TMR2_IRQHandler + 132
        0x00003aee:    480b        .H      LDR      r0,[pc,#44] ; [0x3b1c] = 0x200003bc
        0x00003af0:    6880        .h      LDR      r0,[r0,#8]
        0x00003af2:    1e40        @.      SUBS     r0,r0,#1
        0x00003af4:    4909        .I      LDR      r1,[pc,#36] ; [0x3b1c] = 0x200003bc
        0x00003af6:    6088        .`      STR      r0,[r1,#8]
        0x00003af8:    4608        .F      MOV      r0,r1
        0x00003afa:    6880        .h      LDR      r0,[r0,#8]
        0x00003afc:    2800        .(      CMP      r0,#0
        0x00003afe:    d107        ..      BNE      0x3b10 ; TMR2_IRQHandler + 132
        0x00003b00:    460a        .F      MOV      r2,r1
        0x00003b02:    6910        .i      LDR      r0,[r2,#0x10]
        0x00003b04:    68d1        .h      LDR      r1,[r2,#0xc]
        0x00003b06:    4788        .G      BLX      r1
        0x00003b08:    4804        .H      LDR      r0,[pc,#16] ; [0x3b1c] = 0x200003bc
        0x00003b0a:    6840        @h      LDR      r0,[r0,#4]
        0x00003b0c:    4903        .I      LDR      r1,[pc,#12] ; [0x3b1c] = 0x200003bc
        0x00003b0e:    6088        .`      STR      r0,[r1,#8]
        0x00003b10:    bd10        ..      POP      {r4,pc}
    $d
        0x00003b12:    0000        ..      DCW    0
        0x00003b14:    40110000    ...@    DCD    1074855936
        0x00003b18:    2000010c    ...     DCD    536871180
        0x00003b1c:    200003bc    ...     DCD    536871868
    $t
    i.TMR3_IRQHandler
    TMR3_IRQHandler
        0x00003b20:    b510        ..      PUSH     {r4,lr}
        0x00003b22:    4821        !H      LDR      r0,[pc,#132] ; [0x3ba8] = 0x40110000
        0x00003b24:    6a00        .j      LDR      r0,[r0,#0x20]
        0x00003b26:    0080        ..      LSLS     r0,r0,#2
        0x00003b28:    0fc0        ..      LSRS     r0,r0,#31
        0x00003b2a:    d00b        ..      BEQ      0x3b44 ; TMR3_IRQHandler + 36
        0x00003b2c:    481e        .H      LDR      r0,[pc,#120] ; [0x3ba8] = 0x40110000
        0x00003b2e:    6a80        .j      LDR      r0,[r0,#0x28]
        0x00003b30:    07c0        ..      LSLS     r0,r0,#31
        0x00003b32:    0fc0        ..      LSRS     r0,r0,#31
        0x00003b34:    d006        ..      BEQ      0x3b44 ; TMR3_IRQHandler + 36
        0x00003b36:    481c        .H      LDR      r0,[pc,#112] ; [0x3ba8] = 0x40110000
        0x00003b38:    6a80        .j      LDR      r0,[r0,#0x28]
        0x00003b3a:    0840        @.      LSRS     r0,r0,#1
        0x00003b3c:    0040        @.      LSLS     r0,r0,#1
        0x00003b3e:    1c40        @.      ADDS     r0,r0,#1
        0x00003b40:    4919        .I      LDR      r1,[pc,#100] ; [0x3ba8] = 0x40110000
        0x00003b42:    6288        .b      STR      r0,[r1,#0x28]
        0x00003b44:    4818        .H      LDR      r0,[pc,#96] ; [0x3ba8] = 0x40110000
        0x00003b46:    6b40        @k      LDR      r0,[r0,#0x34]
        0x00003b48:    0700        ..      LSLS     r0,r0,#28
        0x00003b4a:    0fc0        ..      LSRS     r0,r0,#31
        0x00003b4c:    d010        ..      BEQ      0x3b70 ; TMR3_IRQHandler + 80
        0x00003b4e:    4816        .H      LDR      r0,[pc,#88] ; [0x3ba8] = 0x40110000
        0x00003b50:    6b40        @k      LDR      r0,[r0,#0x34]
        0x00003b52:    0680        ..      LSLS     r0,r0,#26
        0x00003b54:    0fc0        ..      LSRS     r0,r0,#31
        0x00003b56:    d00b        ..      BEQ      0x3b70 ; TMR3_IRQHandler + 80
        0x00003b58:    4813        .H      LDR      r0,[pc,#76] ; [0x3ba8] = 0x40110000
        0x00003b5a:    6b80        .k      LDR      r0,[r0,#0x38]
        0x00003b5c:    07c0        ..      LSLS     r0,r0,#31
        0x00003b5e:    0fc0        ..      LSRS     r0,r0,#31
        0x00003b60:    d006        ..      BEQ      0x3b70 ; TMR3_IRQHandler + 80
        0x00003b62:    4811        .H      LDR      r0,[pc,#68] ; [0x3ba8] = 0x40110000
        0x00003b64:    6b80        .k      LDR      r0,[r0,#0x38]
        0x00003b66:    0840        @.      LSRS     r0,r0,#1
        0x00003b68:    0040        @.      LSLS     r0,r0,#1
        0x00003b6a:    1c40        @.      ADDS     r0,r0,#1
        0x00003b6c:    490e        .I      LDR      r1,[pc,#56] ; [0x3ba8] = 0x40110000
        0x00003b6e:    6388        .c      STR      r0,[r1,#0x38]
        0x00003b70:    480e        .H      LDR      r0,[pc,#56] ; [0x3bac] = 0x20000110
        0x00003b72:    6800        .h      LDR      r0,[r0,#0]
        0x00003b74:    1c40        @.      ADDS     r0,r0,#1
        0x00003b76:    490d        .I      LDR      r1,[pc,#52] ; [0x3bac] = 0x20000110
        0x00003b78:    6008        .`      STR      r0,[r1,#0]
        0x00003b7a:    480d        .H      LDR      r0,[pc,#52] ; [0x3bb0] = 0x200003d0
        0x00003b7c:    6800        .h      LDR      r0,[r0,#0]
        0x00003b7e:    2800        .(      CMP      r0,#0
        0x00003b80:    d010        ..      BEQ      0x3ba4 ; TMR3_IRQHandler + 132
        0x00003b82:    480b        .H      LDR      r0,[pc,#44] ; [0x3bb0] = 0x200003d0
        0x00003b84:    6880        .h      LDR      r0,[r0,#8]
        0x00003b86:    1e40        @.      SUBS     r0,r0,#1
        0x00003b88:    4909        .I      LDR      r1,[pc,#36] ; [0x3bb0] = 0x200003d0
        0x00003b8a:    6088        .`      STR      r0,[r1,#8]
        0x00003b8c:    4608        .F      MOV      r0,r1
        0x00003b8e:    6880        .h      LDR      r0,[r0,#8]
        0x00003b90:    2800        .(      CMP      r0,#0
        0x00003b92:    d107        ..      BNE      0x3ba4 ; TMR3_IRQHandler + 132
        0x00003b94:    460a        .F      MOV      r2,r1
        0x00003b96:    6910        .i      LDR      r0,[r2,#0x10]
        0x00003b98:    68d1        .h      LDR      r1,[r2,#0xc]
        0x00003b9a:    4788        .G      BLX      r1
        0x00003b9c:    4804        .H      LDR      r0,[pc,#16] ; [0x3bb0] = 0x200003d0
        0x00003b9e:    6840        @h      LDR      r0,[r0,#4]
        0x00003ba0:    4903        .I      LDR      r1,[pc,#12] ; [0x3bb0] = 0x200003d0
        0x00003ba2:    6088        .`      STR      r0,[r1,#8]
        0x00003ba4:    bd10        ..      POP      {r4,pc}
    $d
        0x00003ba6:    0000        ..      DCW    0
        0x00003ba8:    40110000    ...@    DCD    1074855936
        0x00003bac:    20000110    ...     DCD    536871184
        0x00003bb0:    200003d0    ...     DCD    536871888
    $t
    i.Timer0_Callback
    Timer0_Callback
        0x00003bb4:    b51c        ..      PUSH     {r2-r4,lr}
        0x00003bb6:    2000        .       MOVS     r0,#0
        0x00003bb8:    9000        ..      STR      r0,[sp,#0]
        0x00003bba:    9001        ..      STR      r0,[sp,#4]
        0x00003bbc:    493c        <I      LDR      r1,[pc,#240] ; [0x3cb0] = 0x500042c0
        0x00003bbe:    6008        .`      STR      r0,[r1,#0]
        0x00003bc0:    2204        ."      MOVS     r2,#4
        0x00003bc2:    4669        iF      MOV      r1,sp
        0x00003bc4:    0490        ..      LSLS     r0,r2,#18
        0x00003bc6:    f7fefc77    ..w.    BL       DrvUART_Read ; 0x24b8
        0x00003bca:    4668        hF      MOV      r0,sp
        0x00003bcc:    7800        .x      LDRB     r0,[r0,#0]
        0x00003bce:    28ff        .(      CMP      r0,#0xff
        0x00003bd0:    d10b        ..      BNE      0x3bea ; Timer0_Callback + 54
        0x00003bd2:    4668        hF      MOV      r0,sp
        0x00003bd4:    7840        @x      LDRB     r0,[r0,#1]
        0x00003bd6:    2800        .(      CMP      r0,#0
        0x00003bd8:    d107        ..      BNE      0x3bea ; Timer0_Callback + 54
        0x00003bda:    4668        hF      MOV      r0,sp
        0x00003bdc:    7880        .x      LDRB     r0,[r0,#2]
        0x00003bde:    2801        .(      CMP      r0,#1
        0x00003be0:    d103        ..      BNE      0x3bea ; Timer0_Callback + 54
        0x00003be2:    4933        3I      LDR      r1,[pc,#204] ; [0x3cb0] = 0x500042c0
        0x00003be4:    3940        @9      SUBS     r1,r1,#0x40
        0x00003be6:    6308        .c      STR      r0,[r1,#0x30]
        0x00003be8:    e00e        ..      B        0x3c08 ; Timer0_Callback + 84
        0x00003bea:    4668        hF      MOV      r0,sp
        0x00003bec:    7800        .x      LDRB     r0,[r0,#0]
        0x00003bee:    28ff        .(      CMP      r0,#0xff
        0x00003bf0:    d10a        ..      BNE      0x3c08 ; Timer0_Callback + 84
        0x00003bf2:    4668        hF      MOV      r0,sp
        0x00003bf4:    7840        @x      LDRB     r0,[r0,#1]
        0x00003bf6:    2800        .(      CMP      r0,#0
        0x00003bf8:    d106        ..      BNE      0x3c08 ; Timer0_Callback + 84
        0x00003bfa:    4668        hF      MOV      r0,sp
        0x00003bfc:    7880        .x      LDRB     r0,[r0,#2]
        0x00003bfe:    2800        .(      CMP      r0,#0
        0x00003c00:    d102        ..      BNE      0x3c08 ; Timer0_Callback + 84
        0x00003c02:    492b        +I      LDR      r1,[pc,#172] ; [0x3cb0] = 0x500042c0
        0x00003c04:    3940        @9      SUBS     r1,r1,#0x40
        0x00003c06:    6308        .c      STR      r0,[r1,#0x30]
        0x00003c08:    4668        hF      MOV      r0,sp
        0x00003c0a:    7800        .x      LDRB     r0,[r0,#0]
        0x00003c0c:    28ff        .(      CMP      r0,#0xff
        0x00003c0e:    d13a        :.      BNE      0x3c86 ; Timer0_Callback + 210
        0x00003c10:    4668        hF      MOV      r0,sp
        0x00003c12:    7840        @x      LDRB     r0,[r0,#1]
        0x00003c14:    2801        .(      CMP      r0,#1
        0x00003c16:    d136        6.      BNE      0x3c86 ; Timer0_Callback + 210
        0x00003c18:    4668        hF      MOV      r0,sp
        0x00003c1a:    7880        .x      LDRB     r0,[r0,#2]
        0x00003c1c:    2800        .(      CMP      r0,#0
        0x00003c1e:    d132        2.      BNE      0x3c86 ; Timer0_Callback + 210
        0x00003c20:    4669        iF      MOV      r1,sp
        0x00003c22:    78c9        .x      LDRB     r1,[r1,#3]
        0x00003c24:    004a        J.      LSLS     r2,r1,#1
        0x00003c26:    1888        ..      ADDS     r0,r1,r2
        0x00003c28:    2105        .!      MOVS     r1,#5
        0x00003c2a:    f7fcfad9    ....    BL       __aeabi_idiv ; 0x1e0
        0x00003c2e:    4604        .F      MOV      r4,r0
        0x00003c30:    4621        !F      MOV      r1,r4
        0x00003c32:    207d        }       MOVS     r0,#0x7d
        0x00003c34:    00c0        ..      LSLS     r0,r0,#3
        0x00003c36:    f7fffdf1    ....    BL       PWM_Configuration ; 0x381c
        0x00003c3a:    4669        iF      MOV      r1,sp
        0x00003c3c:    78c8        .x      LDRB     r0,[r1,#3]
        0x00003c3e:    2820         (      CMP      r0,#0x20
        0x00003c40:    dc07        ..      BGT      0x3c52 ; Timer0_Callback + 158
        0x00003c42:    2001        .       MOVS     r0,#1
        0x00003c44:    491a        .I      LDR      r1,[pc,#104] ; [0x3cb0] = 0x500042c0
        0x00003c46:    3940        @9      SUBS     r1,r1,#0x40
        0x00003c48:    6008        .`      STR      r0,[r1,#0]
        0x00003c4a:    2000        .       MOVS     r0,#0
        0x00003c4c:    6048        H`      STR      r0,[r1,#4]
        0x00003c4e:    6088        .`      STR      r0,[r1,#8]
        0x00003c50:    e019        ..      B        0x3c86 ; Timer0_Callback + 210
        0x00003c52:    4668        hF      MOV      r0,sp
        0x00003c54:    78c0        .x      LDRB     r0,[r0,#3]
        0x00003c56:    2830        0(      CMP      r0,#0x30
        0x00003c58:    da0a        ..      BGE      0x3c70 ; Timer0_Callback + 188
        0x00003c5a:    4668        hF      MOV      r0,sp
        0x00003c5c:    78c0        .x      LDRB     r0,[r0,#3]
        0x00003c5e:    2820         (      CMP      r0,#0x20
        0x00003c60:    dd06        ..      BLE      0x3c70 ; Timer0_Callback + 188
        0x00003c62:    2000        .       MOVS     r0,#0
        0x00003c64:    4912        .I      LDR      r1,[pc,#72] ; [0x3cb0] = 0x500042c0
        0x00003c66:    3940        @9      SUBS     r1,r1,#0x40
        0x00003c68:    6008        .`      STR      r0,[r1,#0]
        0x00003c6a:    6048        H`      STR      r0,[r1,#4]
        0x00003c6c:    6088        .`      STR      r0,[r1,#8]
        0x00003c6e:    e00a        ..      B        0x3c86 ; Timer0_Callback + 210
        0x00003c70:    4668        hF      MOV      r0,sp
        0x00003c72:    78c0        .x      LDRB     r0,[r0,#3]
        0x00003c74:    2830        0(      CMP      r0,#0x30
        0x00003c76:    dd06        ..      BLE      0x3c86 ; Timer0_Callback + 210
        0x00003c78:    2000        .       MOVS     r0,#0
        0x00003c7a:    490d        .I      LDR      r1,[pc,#52] ; [0x3cb0] = 0x500042c0
        0x00003c7c:    3940        @9      SUBS     r1,r1,#0x40
        0x00003c7e:    6008        .`      STR      r0,[r1,#0]
        0x00003c80:    6048        H`      STR      r0,[r1,#4]
        0x00003c82:    2001        .       MOVS     r0,#1
        0x00003c84:    6088        .`      STR      r0,[r1,#8]
        0x00003c86:    2000        .       MOVS     r0,#0
        0x00003c88:    4909        .I      LDR      r1,[pc,#36] ; [0x3cb0] = 0x500042c0
        0x00003c8a:    3940        @9      SUBS     r1,r1,#0x40
        0x00003c8c:    6208        .b      STR      r0,[r1,#0x20]
        0x00003c8e:    f000f89f    ....    BL       delay_loop ; 0x3dd0
        0x00003c92:    f000f89d    ....    BL       delay_loop ; 0x3dd0
        0x00003c96:    f000f89b    ....    BL       delay_loop ; 0x3dd0
        0x00003c9a:    f000f899    ....    BL       delay_loop ; 0x3dd0
        0x00003c9e:    f000f897    ....    BL       delay_loop ; 0x3dd0
        0x00003ca2:    f000f895    ....    BL       delay_loop ; 0x3dd0
        0x00003ca6:    2001        .       MOVS     r0,#1
        0x00003ca8:    4901        .I      LDR      r1,[pc,#4] ; [0x3cb0] = 0x500042c0
        0x00003caa:    3940        @9      SUBS     r1,r1,#0x40
        0x00003cac:    6208        .b      STR      r0,[r1,#0x20]
        0x00003cae:    bd1c        ..      POP      {r2-r4,pc}
    $d
        0x00003cb0:    500042c0    .B.P    DCD    1342194368
    $t
    i.UART02_IRQHandler
    UART02_IRQHandler
        0x00003cb4:    b570        p.      PUSH     {r4-r6,lr}
        0x00003cb6:    480a        .H      LDR      r0,[pc,#40] ; [0x3ce0] = 0x40050000
        0x00003cb8:    69c4        .i      LDR      r4,[r0,#0x1c]
        0x00003cba:    480a        .H      LDR      r0,[pc,#40] ; [0x3ce4] = 0x40154000
        0x00003cbc:    69c5        .i      LDR      r5,[r0,#0x1c]
        0x00003cbe:    480a        .H      LDR      r0,[pc,#40] ; [0x3ce8] = 0x200000c0
        0x00003cc0:    6800        .h      LDR      r0,[r0,#0]
        0x00003cc2:    2800        .(      CMP      r0,#0
        0x00003cc4:    d003        ..      BEQ      0x3cce ; UART02_IRQHandler + 26
        0x00003cc6:    4620         F      MOV      r0,r4
        0x00003cc8:    4907        .I      LDR      r1,[pc,#28] ; [0x3ce8] = 0x200000c0
        0x00003cca:    6809        .h      LDR      r1,[r1,#0]
        0x00003ccc:    4788        .G      BLX      r1
        0x00003cce:    4807        .H      LDR      r0,[pc,#28] ; [0x3cec] = 0x200000c8
        0x00003cd0:    6800        .h      LDR      r0,[r0,#0]
        0x00003cd2:    2800        .(      CMP      r0,#0
        0x00003cd4:    d003        ..      BEQ      0x3cde ; UART02_IRQHandler + 42
        0x00003cd6:    4628        (F      MOV      r0,r5
        0x00003cd8:    4904        .I      LDR      r1,[pc,#16] ; [0x3cec] = 0x200000c8
        0x00003cda:    6809        .h      LDR      r1,[r1,#0]
        0x00003cdc:    4788        .G      BLX      r1
        0x00003cde:    bd70        p.      POP      {r4-r6,pc}
    $d
        0x00003ce0:    40050000    ...@    DCD    1074069504
        0x00003ce4:    40154000    .@.@    DCD    1075134464
        0x00003ce8:    200000c0    ...     DCD    536871104
        0x00003cec:    200000c8    ...     DCD    536871112
    $t
    i.UART1_IRQHandler
    UART1_IRQHandler
        0x00003cf0:    b510        ..      PUSH     {r4,lr}
        0x00003cf2:    4805        .H      LDR      r0,[pc,#20] ; [0x3d08] = 0x40150000
        0x00003cf4:    69c4        .i      LDR      r4,[r0,#0x1c]
        0x00003cf6:    4805        .H      LDR      r0,[pc,#20] ; [0x3d0c] = 0x200000c4
        0x00003cf8:    6800        .h      LDR      r0,[r0,#0]
        0x00003cfa:    2800        .(      CMP      r0,#0
        0x00003cfc:    d003        ..      BEQ      0x3d06 ; UART1_IRQHandler + 22
        0x00003cfe:    4620         F      MOV      r0,r4
        0x00003d00:    4902        .I      LDR      r1,[pc,#8] ; [0x3d0c] = 0x200000c4
        0x00003d02:    6809        .h      LDR      r1,[r1,#0]
        0x00003d04:    4788        .G      BLX      r1
        0x00003d06:    bd10        ..      POP      {r4,pc}
    $d
        0x00003d08:    40150000    ...@    DCD    1075118080
        0x00003d0c:    200000c4    ...     DCD    536871108
    $t
    i.UART_Configuration
    UART_Configuration
        0x00003d10:    b50e        ..      PUSH     {r1-r3,lr}
        0x00003d12:    2100        .!      MOVS     r1,#0
        0x00003d14:    2006        .       MOVS     r0,#6
        0x00003d16:    f7fdfee5    ....    BL       DrvSYS_SelectIPClockSource ; 0x1ae4
        0x00003d1a:    20e1        .       MOVS     r0,#0xe1
        0x00003d1c:    0240        @.      LSLS     r0,r0,#9
        0x00003d1e:    9000        ..      STR      r0,[sp,#0]
        0x00003d20:    2103        .!      MOVS     r1,#3
        0x00003d22:    4668        hF      MOV      r0,sp
        0x00003d24:    7101        .q      STRB     r1,[r0,#4]
        0x00003d26:    2100        .!      MOVS     r1,#0
        0x00003d28:    7141        Aq      STRB     r1,[r0,#5]
        0x00003d2a:    7181        .q      STRB     r1,[r0,#6]
        0x00003d2c:    2101        .!      MOVS     r1,#1
        0x00003d2e:    71c1        .q      STRB     r1,[r0,#7]
        0x00003d30:    2100        .!      MOVS     r1,#0
        0x00003d32:    7201        .r      STRB     r1,[r0,#8]
        0x00003d34:    202c        ,       MOVS     r0,#0x2c
        0x00003d36:    f7fcfbcd    ....    BL       DrvGPIO_InitFunction ; 0x4d4
        0x00003d3a:    4669        iF      MOV      r1,sp
        0x00003d3c:    2001        .       MOVS     r0,#1
        0x00003d3e:    0500        ..      LSLS     r0,r0,#20
        0x00003d40:    f7fefa88    ....    BL       DrvUART_Open ; 0x2254
        0x00003d44:    bd0e        ..      POP      {r1-r3,pc}
        0x00003d46:    0000        ..      MOVS     r0,r0
    i.USBD_IRQHandler
    USBD_IRQHandler
        0x00003d48:    b510        ..      PUSH     {r4,lr}
        0x00003d4a:    f7fff80f    ....    BL       DrvUSB_PreDispatchEvent ; 0x2d6c
        0x00003d4e:    4804        .H      LDR      r0,[pc,#16] ; [0x3d60] = 0x2000013c
        0x00003d50:    6800        .h      LDR      r0,[r0,#0]
        0x00003d52:    2800        .(      CMP      r0,#0
        0x00003d54:    d003        ..      BEQ      0x3d5e ; USBD_IRQHandler + 22
        0x00003d56:    4803        .H      LDR      r0,[pc,#12] ; [0x3d64] = 0x200003e4
        0x00003d58:    4901        .I      LDR      r1,[pc,#4] ; [0x3d60] = 0x2000013c
        0x00003d5a:    6809        .h      LDR      r1,[r1,#0]
        0x00003d5c:    4788        .G      BLX      r1
        0x00003d5e:    bd10        ..      POP      {r4,pc}
    $d
        0x00003d60:    2000013c    <..     DCD    536871228
        0x00003d64:    200003e4    ...     DCD    536871908
    $t
    i.WDT_IRQHandler
    WDT_IRQHandler
        0x00003d68:    b510        ..      PUSH     {r4,lr}
        0x00003d6a:    480a        .H      LDR      r0,[pc,#40] ; [0x3d94] = 0x40004000
        0x00003d6c:    6800        .h      LDR      r0,[r0,#0]
        0x00003d6e:    0680        ..      LSLS     r0,r0,#26
        0x00003d70:    0fc4        ..      LSRS     r4,r0,#31
        0x00003d72:    4808        .H      LDR      r0,[pc,#32] ; [0x3d94] = 0x40004000
        0x00003d74:    6800        .h      LDR      r0,[r0,#0]
        0x00003d76:    2108        .!      MOVS     r1,#8
        0x00003d78:    4388        .C      BICS     r0,r0,r1
        0x00003d7a:    3008        .0      ADDS     r0,r0,#8
        0x00003d7c:    4905        .I      LDR      r1,[pc,#20] ; [0x3d94] = 0x40004000
        0x00003d7e:    6008        .`      STR      r0,[r1,#0]
        0x00003d80:    4805        .H      LDR      r0,[pc,#20] ; [0x3d98] = 0x20000138
        0x00003d82:    6800        .h      LDR      r0,[r0,#0]
        0x00003d84:    2800        .(      CMP      r0,#0
        0x00003d86:    d003        ..      BEQ      0x3d90 ; WDT_IRQHandler + 40
        0x00003d88:    4620         F      MOV      r0,r4
        0x00003d8a:    4903        .I      LDR      r1,[pc,#12] ; [0x3d98] = 0x20000138
        0x00003d8c:    6809        .h      LDR      r1,[r1,#0]
        0x00003d8e:    4788        .G      BLX      r1
        0x00003d90:    bd10        ..      POP      {r4,pc}
    $d
        0x00003d92:    0000        ..      DCW    0
        0x00003d94:    40004000    .@.@    DCD    1073758208
        0x00003d98:    20000138    8..     DCD    536871224
    $t
    i.WordsCpy
    WordsCpy
        0x00003d9c:    b570        p.      PUSH     {r4-r6,lr}
        0x00003d9e:    4603        .F      MOV      r3,r0
        0x00003da0:    461d        .F      MOV      r5,r3
        0x00003da2:    460c        .F      MOV      r4,r1
        0x00003da4:    2000        .       MOVS     r0,#0
        0x00003da6:    e002        ..      B        0x3dae ; WordsCpy + 18
        0x00003da8:    5c26        &\      LDRB     r6,[r4,r0]
        0x00003daa:    542e        .T      STRB     r6,[r5,r0]
        0x00003dac:    1c40        @.      ADDS     r0,r0,#1
        0x00003dae:    4290        .B      CMP      r0,r2
        0x00003db0:    dbfa        ..      BLT      0x3da8 ; WordsCpy + 12
        0x00003db2:    bd70        p.      POP      {r4-r6,pc}
    i.__ARM_common_switch8
    __ARM_common_switch8
        0x00003db4:    b430        0.      PUSH     {r4,r5}
        0x00003db6:    4674        tF      MOV      r4,lr
        0x00003db8:    1e64        d.      SUBS     r4,r4,#1
        0x00003dba:    7825        %x      LDRB     r5,[r4,#0]
        0x00003dbc:    1c64        d.      ADDS     r4,r4,#1
        0x00003dbe:    42ab        .B      CMP      r3,r5
        0x00003dc0:    d304        ..      BCC      0x3dcc ; __ARM_common_switch8 + 24
        0x00003dc2:    5d63        c]      LDRB     r3,[r4,r5]
        0x00003dc4:    005b        [.      LSLS     r3,r3,#1
        0x00003dc6:    18e3        ..      ADDS     r3,r4,r3
        0x00003dc8:    bc30        0.      POP      {r4,r5}
        0x00003dca:    4718        .G      BX       r3
        0x00003dcc:    461d        .F      MOV      r5,r3
        0x00003dce:    e7f8        ..      B        0x3dc2 ; __ARM_common_switch8 + 14
    i.delay_loop
    delay_loop
        0x00003dd0:    2000        .       MOVS     r0,#0
        0x00003dd2:    e000        ..      B        0x3dd6 ; delay_loop + 6
        0x00003dd4:    1c40        @.      ADDS     r0,r0,#1
        0x00003dd6:    283c        <(      CMP      r0,#0x3c
        0x00003dd8:    d3fc        ..      BCC      0x3dd4 ; delay_loop + 4
        0x00003dda:    4770        pG      BX       lr
    i.main
    main
        0x00003ddc:    f7fffaca    ....    BL       InitSystem ; 0x3374
        0x00003de0:    bf00        ..      NOP      
        0x00003de2:    e7fe        ..      B        0x3de2 ; main + 6
    $d.realdata
    .constdata
    g_sVendorStringDesc
        0x00003de4:    004e0310    ..N.    DCD    5112592
        0x00003de8:    00560055    U.V.    DCD    5636181
        0x00003dec:    0054004f    O.T.    DCD    5505103
        0x00003df0:    004e004f    O.N.    DCD    5111887
        0x00003df4:    00000000    ....    DCD    0
        0x00003df8:    00000000    ....    DCD    0
        0x00003dfc:    00000000    ....    DCD    0
        0x00003e00:    00000000    ....    DCD    0
        0x00003e04:    00000000    ....    DCD    0
        0x00003e08:    00000000    ....    DCD    0
        0x00003e0c:    00000000    ....    DCD    0
        0x00003e10:    00000000    ....    DCD    0
        0x00003e14:    00000000    ....    DCD    0
        0x00003e18:    00000000    ....    DCD    0
        0x00003e1c:    00000000    ....    DCD    0
        0x00003e20:    00000000    ....    DCD    0
        0x00003e24:    00000000    ....    DCD    0
        0x00003e28:    00000000    ....    DCD    0
        0x00003e2c:    00000000    ....    DCD    0
        0x00003e30:    00000000    ....    DCD    0
        0x00003e34:    00000000    ....    DCD    0
        0x00003e38:    00000000    ....    DCD    0
        0x00003e3c:    00000000    ....    DCD    0
        0x00003e40:    00000000    ....    DCD    0
        0x00003e44:    00000000    ....    DCD    0
        0x00003e48:    00000000    ....    DCD    0
        0x00003e4c:    00000000    ....    DCD    0
        0x00003e50:    00000000    ....    DCD    0
        0x00003e54:    00000000    ....    DCD    0
        0x00003e58:    00000000    ....    DCD    0
        0x00003e5c:    00000000    ....    DCD    0
        0x00003e60:    00000000    ....    DCD    0
        0x00003e64:    00000000    ....    DCD    0
        0x00003e68:    00000000    ....    DCD    0
        0x00003e6c:    00000000    ....    DCD    0
        0x00003e70:    00000000    ....    DCD    0
        0x00003e74:    00000000    ....    DCD    0
        0x00003e78:    00000000    ....    DCD    0
        0x00003e7c:    00000000    ....    DCD    0
        0x00003e80:    00000000    ....    DCD    0
        0x00003e84:    00000000    ....    DCD    0
        0x00003e88:    00000000    ....    DCD    0
        0x00003e8c:    00000000    ....    DCD    0
        0x00003e90:    00000000    ....    DCD    0
        0x00003e94:    00000000    ....    DCD    0
        0x00003e98:    00000000    ....    DCD    0
        0x00003e9c:    00000000    ....    DCD    0
        0x00003ea0:    00000000    ....    DCD    0
        0x00003ea4:    00000000    ....    DCD    0
        0x00003ea8:    00000000    ....    DCD    0
        0x00003eac:    0000        ..      DCW    0
    g_sProductStringDesc
        0x00003eae:    0316        ..      DCW    790
        0x00003eb0:    00520041    A.R.    DCD    5374017
        0x00003eb4:    0020004d    M. .    DCD    2097229
        0x00003eb8:    00650073    s.e.    DCD    6619251
        0x00003ebc:    00690072    r.i.    DCD    6881394
        0x00003ec0:    00730065    e.s.    DCD    7536741
        0x00003ec4:    00000000    ....    DCD    0
        0x00003ec8:    00000000    ....    DCD    0
        0x00003ecc:    00000000    ....    DCD    0
        0x00003ed0:    00000000    ....    DCD    0
        0x00003ed4:    00000000    ....    DCD    0
        0x00003ed8:    00000000    ....    DCD    0
        0x00003edc:    00000000    ....    DCD    0
        0x00003ee0:    00000000    ....    DCD    0
        0x00003ee4:    00000000    ....    DCD    0
        0x00003ee8:    00000000    ....    DCD    0
        0x00003eec:    00000000    ....    DCD    0
        0x00003ef0:    00000000    ....    DCD    0
        0x00003ef4:    00000000    ....    DCD    0
        0x00003ef8:    00000000    ....    DCD    0
        0x00003efc:    00000000    ....    DCD    0
        0x00003f00:    00000000    ....    DCD    0
        0x00003f04:    00000000    ....    DCD    0
        0x00003f08:    00000000    ....    DCD    0
        0x00003f0c:    00000000    ....    DCD    0
        0x00003f10:    00000000    ....    DCD    0
        0x00003f14:    00000000    ....    DCD    0
        0x00003f18:    00000000    ....    DCD    0
        0x00003f1c:    00000000    ....    DCD    0
        0x00003f20:    00000000    ....    DCD    0
        0x00003f24:    00000000    ....    DCD    0
        0x00003f28:    00000000    ....    DCD    0
        0x00003f2c:    00000000    ....    DCD    0
        0x00003f30:    00000000    ....    DCD    0
        0x00003f34:    00000000    ....    DCD    0
        0x00003f38:    00000000    ....    DCD    0
        0x00003f3c:    00000000    ....    DCD    0
        0x00003f40:    00000000    ....    DCD    0
        0x00003f44:    00000000    ....    DCD    0
        0x00003f48:    00000000    ....    DCD    0
        0x00003f4c:    00000000    ....    DCD    0
        0x00003f50:    00000000    ....    DCD    0
        0x00003f54:    00000000    ....    DCD    0
        0x00003f58:    00000000    ....    DCD    0
        0x00003f5c:    00000000    ....    DCD    0
        0x00003f60:    00000000    ....    DCD    0
        0x00003f64:    00000000    ....    DCD    0
        0x00003f68:    00000000    ....    DCD    0
        0x00003f6c:    00000000    ....    DCD    0
        0x00003f70:    00000000    ....    DCD    0
        0x00003f74:    00000000    ....    DCD    0
    g_HID_au8DigitizerReportDescriptor
        0x00003f78:    04090d05    ....    DCD    67702021
        0x00003f7c:    018501a1    ....    DCD    25493921
        0x00003f80:    00a12209    ."..    DCD    10560009
        0x00003f84:    00154209    .B..    DCD    1393161
        0x00003f88:    01750125    %.u.    DCD    24445221
        0x00003f8c:    02810195    ....    DCD    42008981
        0x00003f90:    01753209    .2u.    DCD    24457737
        0x00003f94:    02810195    ....    DCD    42008981
        0x00003f98:    05755109    .Qu.    DCD    91574537
        0x00003f9c:    00150195    ....    DCD    1376661
        0x00003fa0:    81002026    & ..    DCD    2164269094
        0x00003fa4:    75470902    ..Gu    DCD    1967589634
        0x00003fa8:    81019501    ....    DCD    2164364545
        0x00003fac:    09010502    ....    DCD    151061762
        0x00003fb0:    95107530    0u..    DCD    2500883760
        0x00003fb4:    650d5501    .U.e    DCD    1695372545
        0x00003fb8:    00003633    36..    DCD    13875
        0x00003fbc:    26229a46    F."&    DCD    639801926
        0x00003fc0:    02817fff    ....    DCD    42041343
        0x00003fc4:    10753109    .1u.    DCD    276115721
        0x00003fc8:    0d550195    ..U.    DCD    223674773
        0x00003fcc:    00363365    e36.    DCD    3552101
        0x00003fd0:    14c24600    .F..    DCD    348276224
        0x00003fd4:    817fff26    &...    DCD    2172649254
        0x00003fd8:    090d0502    ....    DCD    151848194
        0x00003fdc:    95107530    0u..    DCD    2500883760
        0x00003fe0:    35006501    .e.5    DCD    889218305
        0x00003fe4:    07ff4601    .F..    DCD    134170113
        0x00003fe8:    ff260115    ..&.    DCD    4280680725
        0x00003fec:    09028107    ....    DCD    151159047
        0x00003ff0:    75082555    U%.u    DCD    1963468117
        0x00003ff4:    b1019508    ....    DCD    2969670920
        0x00003ff8:    05c0c002    ....    DCD    96518146
        0x00003ffc:    a10e090d    ....    DCD    2702051597
        0x00004000:    09028501    ....    DCD    151160065
        0x00004004:    0900a122    "...    DCD    151036194
        0x00004008:    15530952    R.S.    DCD    357763410
        0x0000400c:    750a2500    .%.u    DCD    1963599104
        0x00004010:    b1029508    ....    DCD    2969736456
        0x00004014:    06c0c002    ....    DCD    113295362
        0x00004018:    0109ff00    ....    DCD    17432320
        0x0000401c:    038501a1    ....    DCD    59048353
        0x00004020:    08753f95    .?u.    DCD    141901717
        0x00004024:    1500ff26    &...    DCD    352386854
        0x00004028:    91010900    ....    DCD    2432764160
        0x0000402c:    81010902    ....    DCD    2164328706
        0x00004030:    0000c002    ....    DCD    49154
    g_HID_u32DigitizerReportDescriptorSize
        0x00004034:    000000ba    ....    DCD    186
    g_u32DigitizerReportSize
        0x00004038:    00000008    ....    DCD    8
    g_HID_au8DeviceDescriptor
        0x0000403c:    01100112    ....    DCD    17826066
        0x00004040:    08000000    ....    DCD    134217728
        0x00004044:    c1430416    ..C.    DCD    3242394646
        0x00004048:    02010000    ....    DCD    33619968
        0x0000404c:    0100        ..      DCW    256
    g_HID_au8ConfigDescriptor
        0x0000404e:    0209        ..      DCW    521
        0x00004050:    01010022    "...    DCD    16842786
        0x00004054:    0932a000    ..2.    DCD    154312704
        0x00004058:    01000004    ....    DCD    16777220
        0x0000405c:    00030103    ....    DCD    196867
        0x00004060:    01102109    .!..    DCD    17834249
        0x00004064:    ba220100    ..".    DCD    3122790656
        0x00004068:    81050700    ....    DCD    2164590336
        0x0000406c:    14004003    .@..    DCD    335560707
    g_HID_au8StringLang
        0x00004070:    04090304    ....    DCD    67699460
    g_HID_sVendorStringDesc
        0x00004074:    004e0310    ..N.    DCD    5112592
        0x00004078:    00560055    U.V.    DCD    5636181
        0x0000407c:    0054004f    O.T.    DCD    5505103
        0x00004080:    004e004f    O.N.    DCD    5111887
        0x00004084:    00000000    ....    DCD    0
        0x00004088:    00000000    ....    DCD    0
        0x0000408c:    00000000    ....    DCD    0
        0x00004090:    00000000    ....    DCD    0
        0x00004094:    00000000    ....    DCD    0
        0x00004098:    00000000    ....    DCD    0
        0x0000409c:    00000000    ....    DCD    0
        0x000040a0:    00000000    ....    DCD    0
        0x000040a4:    00000000    ....    DCD    0
        0x000040a8:    00000000    ....    DCD    0
        0x000040ac:    00000000    ....    DCD    0
        0x000040b0:    00000000    ....    DCD    0
        0x000040b4:    00000000    ....    DCD    0
        0x000040b8:    00000000    ....    DCD    0
        0x000040bc:    00000000    ....    DCD    0
        0x000040c0:    00000000    ....    DCD    0
        0x000040c4:    00000000    ....    DCD    0
        0x000040c8:    00000000    ....    DCD    0
        0x000040cc:    00000000    ....    DCD    0
        0x000040d0:    00000000    ....    DCD    0
        0x000040d4:    00000000    ....    DCD    0
        0x000040d8:    00000000    ....    DCD    0
        0x000040dc:    00000000    ....    DCD    0
        0x000040e0:    00000000    ....    DCD    0
        0x000040e4:    00000000    ....    DCD    0
        0x000040e8:    00000000    ....    DCD    0
        0x000040ec:    00000000    ....    DCD    0
        0x000040f0:    00000000    ....    DCD    0
        0x000040f4:    00000000    ....    DCD    0
        0x000040f8:    00000000    ....    DCD    0
        0x000040fc:    00000000    ....    DCD    0
        0x00004100:    00000000    ....    DCD    0
        0x00004104:    00000000    ....    DCD    0
        0x00004108:    00000000    ....    DCD    0
        0x0000410c:    00000000    ....    DCD    0
        0x00004110:    00000000    ....    DCD    0
        0x00004114:    00000000    ....    DCD    0
        0x00004118:    00000000    ....    DCD    0
        0x0000411c:    00000000    ....    DCD    0
        0x00004120:    00000000    ....    DCD    0
        0x00004124:    00000000    ....    DCD    0
        0x00004128:    00000000    ....    DCD    0
        0x0000412c:    00000000    ....    DCD    0
        0x00004130:    00000000    ....    DCD    0
        0x00004134:    00000000    ....    DCD    0
        0x00004138:    00000000    ....    DCD    0
        0x0000413c:    0000        ..      DCW    0
    g_HID_sProductStringDesc
        0x0000413e:    0310        ..      DCW    784
        0x00004140:    00500057    W.P.    DCD    5242967
        0x00004144:    0020004d    M. .    DCD    2097229
        0x00004148:    00530055    U.S.    DCD    5439573
        0x0000414c:    00000042    B...    DCD    66
        0x00004150:    00000000    ....    DCD    0
        0x00004154:    00000000    ....    DCD    0
        0x00004158:    00000000    ....    DCD    0
        0x0000415c:    00000000    ....    DCD    0
        0x00004160:    00000000    ....    DCD    0
        0x00004164:    00000000    ....    DCD    0
        0x00004168:    00000000    ....    DCD    0
        0x0000416c:    00000000    ....    DCD    0
        0x00004170:    00000000    ....    DCD    0
        0x00004174:    00000000    ....    DCD    0
        0x00004178:    00000000    ....    DCD    0
        0x0000417c:    00000000    ....    DCD    0
        0x00004180:    00000000    ....    DCD    0
        0x00004184:    00000000    ....    DCD    0
        0x00004188:    00000000    ....    DCD    0
        0x0000418c:    00000000    ....    DCD    0
        0x00004190:    00000000    ....    DCD    0
        0x00004194:    00000000    ....    DCD    0
        0x00004198:    00000000    ....    DCD    0
        0x0000419c:    00000000    ....    DCD    0
        0x000041a0:    00000000    ....    DCD    0
        0x000041a4:    00000000    ....    DCD    0
        0x000041a8:    00000000    ....    DCD    0
        0x000041ac:    00000000    ....    DCD    0
        0x000041b0:    00000000    ....    DCD    0
        0x000041b4:    00000000    ....    DCD    0
        0x000041b8:    00000000    ....    DCD    0
        0x000041bc:    00000000    ....    DCD    0
        0x000041c0:    00000000    ....    DCD    0
        0x000041c4:    00000000    ....    DCD    0
        0x000041c8:    00000000    ....    DCD    0
        0x000041cc:    00000000    ....    DCD    0
        0x000041d0:    00000000    ....    DCD    0
        0x000041d4:    00000000    ....    DCD    0
        0x000041d8:    00000000    ....    DCD    0
        0x000041dc:    00000000    ....    DCD    0
        0x000041e0:    00000000    ....    DCD    0
        0x000041e4:    00000000    ....    DCD    0
        0x000041e8:    00000000    ....    DCD    0
        0x000041ec:    00000000    ....    DCD    0
        0x000041f0:    00000000    ....    DCD    0
        0x000041f4:    00000000    ....    DCD    0
        0x000041f8:    00000000    ....    DCD    0
        0x000041fc:    00000000    ....    DCD    0
        0x00004200:    00000000    ....    DCD    0
        0x00004204:    00000000    ....    DCD    0
    g_HID_au8StringSerial
        0x00004208:    0042031a    ..B.    DCD    4326170
        0x0000420c:    00320030    0.2.    DCD    3276848
        0x00004210:    00300030    0.0.    DCD    3145776
        0x00004214:    00300036    6.0.    DCD    3145782
        0x00004218:    00320039    9.2.    DCD    3276857
        0x0000421c:    00310031    1.1.    DCD    3211313
        0x00004220:    00000034    4...    DCD    52
    .constdata
        0x00004224:    00000001    ....    DCD    1
        0x00004228:    00000002    ....    DCD    2
        0x0000422c:    00000002    ....    DCD    2
        0x00004230:    00000004    ....    DCD    4
    .constdata
    CH_OFFSET
        0x00004234:    00000000    ....    DCD    0
        0x00004238:    00000020     ...    DCD    32
        0x0000423c:    00100000    ....    DCD    1048576
        0x00004240:    00100020     ...    DCD    1048608
    Region$$Table$$Base
        0x00004244:    00004264    dB..    DCD    16996
        0x00004248:    20000000    ...     DCD    536870912
        0x0000424c:    00000328    (...    DCD    808
        0x00004250:    00000104    ....    DCD    260
        0x00004254:    0000458c    .E..    DCD    17804
        0x00004258:    20000328    (..     DCD    536871720
        0x0000425c:    00000650    P...    DCD    1616
        0x00004260:    00000120     ...    DCD    288
    Region$$Table$$Limit

** Section #2 'ER_RW' (SHT_PROGBITS) [SHF_ALLOC + SHF_WRITE]
    Size   : 808 bytes (alignment 4)
    Address: 0x20000000


** Section #3 'ER_ZI' (SHT_NOBITS) [SHF_ALLOC + SHF_WRITE]
    Size   : 1616 bytes (alignment 8)
    Address: 0x20000328


** Section #4 '.debug_abbrev' (SHT_PROGBITS)
    Size   : 1476 bytes


** Section #5 '.debug_frame' (SHT_PROGBITS)
    Size   : 3168 bytes


** Section #6 '.debug_info' (SHT_PROGBITS)
    Size   : 167060 bytes


** Section #7 '.debug_line' (SHT_PROGBITS)
    Size   : 20780 bytes


** Section #8 '.debug_loc' (SHT_PROGBITS)
    Size   : 7288 bytes


** Section #9 '.debug_macinfo' (SHT_PROGBITS)
    Size   : 179152 bytes


** Section #10 '.debug_pubnames' (SHT_PROGBITS)
    Size   : 5068 bytes


** Section #11 '.symtab' (SHT_SYMTAB)
    Size   : 11760 bytes (alignment 4)
    String table #12 '.strtab'
    Last local symbol no. 511


** Section #12 '.strtab' (SHT_STRTAB)
    Size   : 9696 bytes


** Section #13 '.note' (SHT_NOTE)
    Size   : 28 bytes (alignment 4)


** Section #14 '.comment' (SHT_PROGBITS)
    Size   : 7628 bytes


** Section #15 '.shstrtab' (SHT_STRTAB)
    Size   : 156 bytes


